	.arch armv5te
	.fpu softvfp
	.eabi_attribute 20, 1
	.eabi_attribute 21, 1
	.eabi_attribute 23, 3
	.eabi_attribute 24, 1
	.eabi_attribute 25, 1
	.eabi_attribute 26, 2
	.eabi_attribute 30, 4
	.eabi_attribute 18, 4
	.code	16
	.file	"tcc_jni.c"
	.text
.Ltext0:
	.cfi_sections	.debug_frame
	.section	.text.l_tcc_call,"ax",%progbits
	.align	1
	.global	l_tcc_call
	.code	16
	.thumb_func
	.type	l_tcc_call, %function
l_tcc_call:
	.fnstart
.LFB35:
	.file 1 "jni/tcc/tcc_jni.c"
	.loc 1 257 0
	.cfi_startproc
	.save	{r0, r1, r4, r5, r6, lr}
	push	{r0, r1, r4, r5, r6, lr}
.LCFI0:
	.cfi_def_cfa_offset 24
	.cfi_offset 0, -24
	.cfi_offset 1, -20
	.cfi_offset 4, -16
	.cfi_offset 5, -12
	.cfi_offset 6, -8
	.cfi_offset 14, -4
.LVL0:
	.loc 1 260 0
	mov	r1, #1
	.loc 1 257 0
	mov	r4, r0
	.loc 1 260 0
	bl	lua_touserdata
.LVL1:
	.loc 1 261 0
	ldr	r1, .L7
	ldr	r0, [r0]
.LVL2:
.LPIC0:
	add	r1, pc
	bl	tcc_get_symbol
.LVL3:
	.loc 1 263 0
	mov	r1, #2
	.loc 1 261 0
	mov	r6, r0
.LVL4:
	.loc 1 263 0
	mov	r0, r4
.LVL5:
	bl	lua_type
	cmp	r0, #4
	beq	.L4
	cmp	r0, #7
	beq	.L5
	cmp	r0, #3
	bne	.L2
.LBB2:
	.loc 1 266 0
	mov	r0, r4
	mov	r1, #2
	mov	r2, #0
	bl	lua_tonumberx
.LVL6:
	str	r0, [sp]
	str	r1, [sp, #4]
.LVL7:
	b	.L6
.LVL8:
.L4:
.LBE2:
.LBB3:
	.loc 1 271 0
	mov	r0, r4
	mov	r1, #2
	mov	r2, #0
	bl	lua_tolstring
.LVL9:
	str	r0, [sp]
.LVL10:
.L6:
	.loc 1 272 0
	mov	r5, sp
	.loc 1 273 0
	b	.L2
.LVL11:
.L5:
.LBE3:
	.loc 1 275 0
	mov	r0, r4
	mov	r1, #2
	bl	lua_touserdata
	mov	r5, r0
.LVL12:
.L2:
	.loc 1 279 0
	mov	r0, r5
	blx	r6
	mov	r2, r0
.LVL13:
	.loc 1 280 0
	asr	r3, r0, #31
	mov	r0, r4
.LVL14:
	bl	lua_pushinteger
.LVL15:
	.loc 1 283 0
	@ sp needed for prologue
	mov	r0, #1
.LVL16:
.LVL17:
.LVL18:
	pop	{r1, r2, r4, r5, r6, pc}
.L8:
	.align	2
.L7:
	.word	.LC0-(.LPIC0+4)
	.cfi_endproc
.LFE35:
	.fnend
	.size	l_tcc_call, .-l_tcc_call
	.section	.text.l_tcc_get_function,"ax",%progbits
	.align	1
	.global	l_tcc_get_function
	.code	16
	.thumb_func
	.type	l_tcc_get_function, %function
l_tcc_get_function:
	.fnstart
.LFB34:
	.loc 1 246 0
	.cfi_startproc
	.save	{r3, r4, r5, lr}
	push	{r3, r4, r5, lr}
.LCFI1:
	.cfi_def_cfa_offset 16
	.cfi_offset 3, -16
	.cfi_offset 4, -12
	.cfi_offset 5, -8
	.cfi_offset 14, -4
.LVL19:
	.loc 1 249 0
	mov	r1, #1
	.loc 1 246 0
	mov	r4, r0
	.loc 1 249 0
	bl	lua_touserdata
.LVL20:
	.loc 1 250 0
	mov	r2, #0
	.loc 1 249 0
	ldr	r5, [r0]
.LVL21:
	.loc 1 250 0
	mov	r1, #2
	mov	r0, r4
.LVL22:
	bl	lua_tolstring
	mov	r1, r0
.LVL23:
	.loc 1 251 0
	mov	r0, r5
.LVL24:
	bl	tcc_get_symbol
.LVL25:
	.loc 1 252 0
	mov	r2, #0
	.loc 1 251 0
	mov	r1, r0
.LVL26:
	.loc 1 252 0
	mov	r0, r4
.LVL27:
	bl	lua_pushcclosure
.LVL28:
	.loc 1 254 0
	@ sp needed for prologue
	mov	r0, #1
.LVL29:
.LVL30:
	pop	{r3, r4, r5, pc}
	.cfi_endproc
.LFE34:
	.fnend
	.size	l_tcc_get_function, .-l_tcc_get_function
	.section	.text.l_tcc_run,"ax",%progbits
	.align	1
	.global	l_tcc_run
	.code	16
	.thumb_func
	.type	l_tcc_run, %function
l_tcc_run:
	.fnstart
.LFB32:
	.loc 1 217 0
	.cfi_startproc
	.save	{r4, r5, r6, r7, lr}
	push	{r4, r5, r6, r7, lr}
.LCFI2:
	.cfi_def_cfa_offset 20
	.cfi_offset 4, -20
	.cfi_offset 5, -16
	.cfi_offset 6, -12
	.cfi_offset 7, -8
	.cfi_offset 14, -4
.LVL31:
	ldr	r4, .L14
	.pad #36
	sub	sp, sp, #36
.LCFI3:
	.cfi_def_cfa_offset 56
	.setfp r7, sp, #0
	add	r7, sp, #0
.LCFI4:
	.cfi_def_cfa_register 7
	.loc 1 217 0
.LPIC10:
	add	r4, pc
	ldr	r4, [r4]
	.loc 1 219 0
	mov	r1, #1
	.loc 1 217 0
	str	r0, [r7, #20]
	ldr	r3, [r4]
	.loc 1 225 0
	mov	r6, #2
	.loc 1 217 0
	str	r3, [r7, #28]
	.loc 1 219 0
	bl	lua_touserdata
.LVL32:
	ldr	r0, [r0]
	str	r0, [r7, #4]
.LVL33:
	.loc 1 221 0
	ldr	r0, [r7, #20]
.LVL34:
	bl	lua_gettop
	.loc 1 222 0
	mov	r2, r0
	sub	r2, r2, #1
	lsl	r3, r2, #2
	add	r3, r3, #14
	lsr	r3, r3, #3
	str	r2, [r7, #12]
	lsl	r3, r3, #3
	mov	r2, sp
	sub	r2, r2, r3
	.loc 1 221 0
	str	r0, [r7, #16]
.LVL35:
	.loc 1 222 0
	mov	sp, r2
	str	r2, [r7, #8]
.LVL36:
	mov	r5, r2
	.loc 1 225 0
	b	.L11
.LVL37:
.L12:
	.loc 1 227 0
	mov	r1, r6
	ldr	r0, [r7, #20]
	mov	r2, #0
	bl	lua_tolstring
	.loc 1 225 0 discriminator 2
	add	r6, r6, #1
.LVL38:
	.loc 1 227 0
	stmia	r5!, {r0}
.LVL39:
.L11:
	.loc 1 225 0 discriminator 1
	ldr	r3, [r7, #16]
	cmp	r6, r3
	ble	.L12
	.loc 1 230 0
	ldr	r1, [r7, #12]
	ldr	r2, [r7, #8]
	ldr	r0, [r7, #4]
	bl	tcc_run
	mov	r2, r0
.LVL40:
	.loc 1 231 0
	asr	r3, r0, #31
	ldr	r0, [r7, #20]
.LVL41:
	bl	lua_pushinteger
.LVL42:
	.loc 1 233 0
	ldr	r2, [r7, #28]
	ldr	r3, [r4]
	mov	r0, #1
	cmp	r2, r3
	beq	.L13
	bl	__stack_chk_fail
.L13:
	mov	sp, r7
.LVL43:
	add	sp, sp, #36
	@ sp needed for prologue
.LVL44:
	pop	{r4, r5, r6, r7, pc}
.L15:
	.align	2
.L14:
	.word	__stack_chk_guard(GOT_PREL)+(.-(.LPIC10+4))
	.cfi_endproc
.LFE32:
	.fnend
	.size	l_tcc_run, .-l_tcc_run
	.section	.text.l_tcc_output_file,"ax",%progbits
	.align	1
	.global	l_tcc_output_file
	.code	16
	.thumb_func
	.type	l_tcc_output_file, %function
l_tcc_output_file:
	.fnstart
.LFB31:
	.loc 1 207 0
	.cfi_startproc
	.save	{r3, r4, r5, lr}
	push	{r3, r4, r5, lr}
.LCFI5:
	.cfi_def_cfa_offset 16
	.cfi_offset 3, -16
	.cfi_offset 4, -12
	.cfi_offset 5, -8
	.cfi_offset 14, -4
.LVL45:
	.loc 1 209 0
	mov	r1, #1
	.loc 1 207 0
	mov	r4, r0
	.loc 1 209 0
	bl	lua_touserdata
.LVL46:
	.loc 1 210 0
	mov	r2, #0
	.loc 1 209 0
	ldr	r5, [r0]
.LVL47:
	.loc 1 210 0
	mov	r1, #2
	mov	r0, r4
.LVL48:
	bl	lua_tolstring
	mov	r1, r0
.LVL49:
	.loc 1 211 0
	mov	r0, r5
.LVL50:
	bl	tcc_output_file
.LVL51:
	mov	r2, r0
.LVL52:
	.loc 1 212 0
	asr	r3, r0, #31
	mov	r0, r4
.LVL53:
	bl	lua_pushinteger
.LVL54:
	.loc 1 214 0
	@ sp needed for prologue
	mov	r0, #1
.LVL55:
.LVL56:
	pop	{r3, r4, r5, pc}
	.cfi_endproc
.LFE31:
	.fnend
	.size	l_tcc_output_file, .-l_tcc_output_file
	.section	.text.l_tcc_add_library,"ax",%progbits
	.align	1
	.global	l_tcc_add_library
	.code	16
	.thumb_func
	.type	l_tcc_add_library, %function
l_tcc_add_library:
	.fnstart
.LFB30:
	.loc 1 197 0
	.cfi_startproc
	.save	{r3, r4, r5, lr}
	push	{r3, r4, r5, lr}
.LCFI6:
	.cfi_def_cfa_offset 16
	.cfi_offset 3, -16
	.cfi_offset 4, -12
	.cfi_offset 5, -8
	.cfi_offset 14, -4
.LVL57:
	.loc 1 199 0
	mov	r1, #1
	.loc 1 197 0
	mov	r4, r0
	.loc 1 199 0
	bl	lua_touserdata
.LVL58:
	.loc 1 200 0
	mov	r2, #0
	.loc 1 199 0
	ldr	r5, [r0]
.LVL59:
	.loc 1 200 0
	mov	r1, #2
	mov	r0, r4
.LVL60:
	bl	lua_tolstring
	mov	r1, r0
.LVL61:
	.loc 1 201 0
	mov	r0, r5
.LVL62:
	bl	tcc_add_library
.LVL63:
	mov	r2, r0
.LVL64:
	.loc 1 202 0
	asr	r3, r0, #31
	mov	r0, r4
.LVL65:
	bl	lua_pushinteger
.LVL66:
	.loc 1 204 0
	@ sp needed for prologue
	mov	r0, #1
.LVL67:
.LVL68:
	pop	{r3, r4, r5, pc}
	.cfi_endproc
.LFE30:
	.fnend
	.size	l_tcc_add_library, .-l_tcc_add_library
	.section	.text.l_tcc_add_library_path,"ax",%progbits
	.align	1
	.global	l_tcc_add_library_path
	.code	16
	.thumb_func
	.type	l_tcc_add_library_path, %function
l_tcc_add_library_path:
	.fnstart
.LFB29:
	.loc 1 188 0
	.cfi_startproc
	.save	{r3, r4, r5, lr}
	push	{r3, r4, r5, lr}
.LCFI7:
	.cfi_def_cfa_offset 16
	.cfi_offset 3, -16
	.cfi_offset 4, -12
	.cfi_offset 5, -8
	.cfi_offset 14, -4
.LVL69:
	.loc 1 190 0
	mov	r1, #1
	.loc 1 188 0
	mov	r4, r0
	.loc 1 190 0
	bl	lua_touserdata
.LVL70:
	.loc 1 191 0
	mov	r2, #0
	.loc 1 190 0
	ldr	r5, [r0]
.LVL71:
	.loc 1 191 0
	mov	r1, #2
	mov	r0, r4
.LVL72:
	bl	lua_tolstring
	mov	r1, r0
.LVL73:
	.loc 1 192 0
	mov	r0, r5
.LVL74:
	bl	tcc_add_library_path
.LVL75:
	mov	r2, r0
.LVL76:
	.loc 1 193 0
	asr	r3, r0, #31
	mov	r0, r4
.LVL77:
	bl	lua_pushinteger
.LVL78:
	.loc 1 195 0
	@ sp needed for prologue
	mov	r0, #1
.LVL79:
.LVL80:
	pop	{r3, r4, r5, pc}
	.cfi_endproc
.LFE29:
	.fnend
	.size	l_tcc_add_library_path, .-l_tcc_add_library_path
	.section	.text.l_tcc_set_output_type,"ax",%progbits
	.align	1
	.global	l_tcc_set_output_type
	.code	16
	.thumb_func
	.type	l_tcc_set_output_type, %function
l_tcc_set_output_type:
	.fnstart
.LFB28:
	.loc 1 178 0
	.cfi_startproc
	.save	{r3, r4, r5, lr}
	push	{r3, r4, r5, lr}
.LCFI8:
	.cfi_def_cfa_offset 16
	.cfi_offset 3, -16
	.cfi_offset 4, -12
	.cfi_offset 5, -8
	.cfi_offset 14, -4
.LVL81:
	.loc 1 180 0
	mov	r1, #1
	.loc 1 178 0
	mov	r4, r0
	.loc 1 180 0
	bl	lua_touserdata
.LVL82:
	.loc 1 181 0
	mov	r2, #0
	.loc 1 180 0
	ldr	r5, [r0]
.LVL83:
	.loc 1 181 0
	mov	r1, #2
	mov	r0, r4
.LVL84:
	bl	lua_tointegerx
	mov	r1, r0
.LVL85:
	.loc 1 182 0
	mov	r0, r5
.LVL86:
	bl	tcc_set_output_type
.LVL87:
	mov	r2, r0
.LVL88:
	.loc 1 183 0
	asr	r3, r0, #31
	mov	r0, r4
.LVL89:
	bl	lua_pushinteger
.LVL90:
	.loc 1 185 0
	@ sp needed for prologue
	mov	r0, #1
.LVL91:
.LVL92:
	pop	{r3, r4, r5, pc}
	.cfi_endproc
.LFE28:
	.fnend
	.size	l_tcc_set_output_type, .-l_tcc_set_output_type
	.section	.text.l_tcc_undefine_symbol,"ax",%progbits
	.align	1
	.global	l_tcc_undefine_symbol
	.code	16
	.thumb_func
	.type	l_tcc_undefine_symbol, %function
l_tcc_undefine_symbol:
	.fnstart
.LFB25:
	.loc 1 136 0
	.cfi_startproc
	.save	{r3, r4, r5, lr}
	push	{r3, r4, r5, lr}
.LCFI9:
	.cfi_def_cfa_offset 16
	.cfi_offset 3, -16
	.cfi_offset 4, -12
	.cfi_offset 5, -8
	.cfi_offset 14, -4
.LVL93:
	.loc 1 138 0
	mov	r1, #1
	.loc 1 136 0
	mov	r4, r0
	.loc 1 138 0
	bl	lua_touserdata
.LVL94:
	.loc 1 139 0
	mov	r2, #0
	.loc 1 138 0
	ldr	r5, [r0]
.LVL95:
	.loc 1 139 0
	mov	r1, #2
	mov	r0, r4
.LVL96:
	bl	lua_tolstring
	mov	r1, r0
	mov	r0, r5
	bl	tcc_undefine_symbol
	.loc 1 141 0
	@ sp needed for prologue
	mov	r0, #0
.LVL97:
.LVL98:
	pop	{r3, r4, r5, pc}
	.cfi_endproc
.LFE25:
	.fnend
	.size	l_tcc_undefine_symbol, .-l_tcc_undefine_symbol
	.section	.text.l_tcc_define_symbol,"ax",%progbits
	.align	1
	.global	l_tcc_define_symbol
	.code	16
	.thumb_func
	.type	l_tcc_define_symbol, %function
l_tcc_define_symbol:
	.fnstart
.LFB24:
	.loc 1 128 0
	.cfi_startproc
	.save	{r4, r5, r6, lr}
	push	{r4, r5, r6, lr}
.LCFI10:
	.cfi_def_cfa_offset 16
	.cfi_offset 4, -16
	.cfi_offset 5, -12
	.cfi_offset 6, -8
	.cfi_offset 14, -4
.LVL99:
	.loc 1 130 0
	mov	r1, #1
	.loc 1 128 0
	mov	r4, r0
	.loc 1 130 0
	bl	lua_touserdata
.LVL100:
	.loc 1 131 0
	mov	r1, #2
	.loc 1 130 0
	ldr	r5, [r0]
.LVL101:
	.loc 1 131 0
	mov	r2, #0
	mov	r0, r4
.LVL102:
	bl	lua_tolstring
	mov	r1, #3
	mov	r6, r0
	mov	r2, #0
	mov	r0, r4
	bl	lua_tolstring
	mov	r1, r6
	mov	r2, r0
	mov	r0, r5
	bl	tcc_define_symbol
	.loc 1 133 0
	@ sp needed for prologue
	mov	r0, #0
.LVL103:
.LVL104:
	pop	{r4, r5, r6, pc}
	.cfi_endproc
.LFE24:
	.fnend
	.size	l_tcc_define_symbol, .-l_tcc_define_symbol
	.section	.text.l_tcc_add_include_path,"ax",%progbits
	.align	1
	.global	l_tcc_add_include_path
	.code	16
	.thumb_func
	.type	l_tcc_add_include_path, %function
l_tcc_add_include_path:
	.fnstart
.LFB23:
	.loc 1 118 0
	.cfi_startproc
	.save	{r3, r4, r5, lr}
	push	{r3, r4, r5, lr}
.LCFI11:
	.cfi_def_cfa_offset 16
	.cfi_offset 3, -16
	.cfi_offset 4, -12
	.cfi_offset 5, -8
	.cfi_offset 14, -4
.LVL105:
	.loc 1 120 0
	mov	r1, #1
	.loc 1 118 0
	mov	r4, r0
	.loc 1 120 0
	bl	lua_touserdata
.LVL106:
	.loc 1 121 0
	mov	r2, #0
	.loc 1 120 0
	ldr	r5, [r0]
.LVL107:
	.loc 1 121 0
	mov	r1, #2
	mov	r0, r4
.LVL108:
	bl	lua_tolstring
	mov	r1, r0
.LVL109:
	.loc 1 122 0
	mov	r0, r5
.LVL110:
	bl	tcc_add_include_path
.LVL111:
	mov	r2, r0
.LVL112:
	.loc 1 123 0
	asr	r3, r0, #31
	mov	r0, r4
.LVL113:
	bl	lua_pushinteger
.LVL114:
	.loc 1 125 0
	@ sp needed for prologue
	mov	r0, #1
.LVL115:
.LVL116:
	pop	{r3, r4, r5, pc}
	.cfi_endproc
.LFE23:
	.fnend
	.size	l_tcc_add_include_path, .-l_tcc_add_include_path
	.section	.text.l_tcc_add_sysinclude_path,"ax",%progbits
	.align	1
	.global	l_tcc_add_sysinclude_path
	.code	16
	.thumb_func
	.type	l_tcc_add_sysinclude_path, %function
l_tcc_add_sysinclude_path:
	.fnstart
.LFB22:
	.loc 1 108 0
	.cfi_startproc
	.save	{r3, r4, r5, lr}
	push	{r3, r4, r5, lr}
.LCFI12:
	.cfi_def_cfa_offset 16
	.cfi_offset 3, -16
	.cfi_offset 4, -12
	.cfi_offset 5, -8
	.cfi_offset 14, -4
.LVL117:
	.loc 1 110 0
	mov	r1, #1
	.loc 1 108 0
	mov	r4, r0
	.loc 1 110 0
	bl	lua_touserdata
.LVL118:
	.loc 1 111 0
	mov	r2, #0
	.loc 1 110 0
	ldr	r5, [r0]
.LVL119:
	.loc 1 111 0
	mov	r1, #2
	mov	r0, r4
.LVL120:
	bl	lua_tolstring
	mov	r1, r0
.LVL121:
	.loc 1 112 0
	mov	r0, r5
.LVL122:
	bl	tcc_add_sysinclude_path
.LVL123:
	mov	r2, r0
.LVL124:
	.loc 1 113 0
	asr	r3, r0, #31
	mov	r0, r4
.LVL125:
	bl	lua_pushinteger
.LVL126:
	.loc 1 115 0
	@ sp needed for prologue
	mov	r0, #1
.LVL127:
.LVL128:
	pop	{r3, r4, r5, pc}
	.cfi_endproc
.LFE22:
	.fnend
	.size	l_tcc_add_sysinclude_path, .-l_tcc_add_sysinclude_path
	.section	.text.l_tcc_set_options,"ax",%progbits
	.align	1
	.global	l_tcc_set_options
	.code	16
	.thumb_func
	.type	l_tcc_set_options, %function
l_tcc_set_options:
	.fnstart
.LFB21:
	.loc 1 98 0
	.cfi_startproc
	.save	{r3, r4, r5, lr}
	push	{r3, r4, r5, lr}
.LCFI13:
	.cfi_def_cfa_offset 16
	.cfi_offset 3, -16
	.cfi_offset 4, -12
	.cfi_offset 5, -8
	.cfi_offset 14, -4
.LVL129:
	.loc 1 100 0
	mov	r1, #1
	.loc 1 98 0
	mov	r4, r0
	.loc 1 100 0
	bl	lua_touserdata
.LVL130:
	.loc 1 101 0
	mov	r2, #0
	.loc 1 100 0
	ldr	r5, [r0]
.LVL131:
	.loc 1 101 0
	mov	r1, #2
	mov	r0, r4
.LVL132:
	bl	lua_tolstring
	mov	r1, r0
.LVL133:
	.loc 1 102 0
	mov	r0, r5
.LVL134:
	bl	tcc_set_options
.LVL135:
	mov	r2, r0
.LVL136:
	.loc 1 103 0
	asr	r3, r0, #31
	mov	r0, r4
.LVL137:
	bl	lua_pushinteger
.LVL138:
	.loc 1 105 0
	@ sp needed for prologue
	mov	r0, #1
.LVL139:
.LVL140:
	pop	{r3, r4, r5, pc}
	.cfi_endproc
.LFE21:
	.fnend
	.size	l_tcc_set_options, .-l_tcc_set_options
	.section	.text.l_tcc_set_lib_path,"ax",%progbits
	.align	1
	.global	l_tcc_set_lib_path
	.code	16
	.thumb_func
	.type	l_tcc_set_lib_path, %function
l_tcc_set_lib_path:
	.fnstart
.LFB20:
	.loc 1 90 0
	.cfi_startproc
	.save	{r3, r4, r5, lr}
	push	{r3, r4, r5, lr}
.LCFI14:
	.cfi_def_cfa_offset 16
	.cfi_offset 3, -16
	.cfi_offset 4, -12
	.cfi_offset 5, -8
	.cfi_offset 14, -4
.LVL141:
	.loc 1 92 0
	mov	r1, #1
	.loc 1 90 0
	mov	r4, r0
	.loc 1 92 0
	bl	lua_touserdata
.LVL142:
	.loc 1 93 0
	mov	r2, #0
	.loc 1 92 0
	ldr	r5, [r0]
.LVL143:
	.loc 1 93 0
	mov	r1, #1
	mov	r0, r4
.LVL144:
	bl	lua_tolstring
	mov	r1, r0
	mov	r0, r5
	bl	tcc_set_lib_path
	.loc 1 95 0
	@ sp needed for prologue
	mov	r0, #0
.LVL145:
.LVL146:
	pop	{r3, r4, r5, pc}
	.cfi_endproc
.LFE20:
	.fnend
	.size	l_tcc_set_lib_path, .-l_tcc_set_lib_path
	.section	.text.l_tcc_delete,"ax",%progbits
	.align	1
	.global	l_tcc_delete
	.code	16
	.thumb_func
	.type	l_tcc_delete, %function
l_tcc_delete:
	.fnstart
.LFB19:
	.loc 1 82 0
	.cfi_startproc
	.save	{r3, lr}
	push	{r3, lr}
.LCFI15:
	.cfi_def_cfa_offset 8
	.cfi_offset 3, -8
	.cfi_offset 14, -4
.LVL147:
	.loc 1 84 0
	mov	r1, #1
	bl	lua_touserdata
.LVL148:
	.loc 1 85 0
	ldr	r0, [r0]
.LVL149:
	bl	tcc_delete
.LVL150:
	.loc 1 87 0
	@ sp needed for prologue
	mov	r0, #0
	pop	{r3, pc}
	.cfi_endproc
.LFE19:
	.fnend
	.size	l_tcc_delete, .-l_tcc_delete
	.section	.text.bar,"ax",%progbits
	.align	1
	.global	bar
	.code	16
	.thumb_func
	.type	bar, %function
bar:
	.fnstart
.LFB14:
	.loc 1 28 0
	.cfi_startproc
	.pad #16
	push	{r0, r1, r2, r3}
.LCFI16:
	.cfi_def_cfa_offset 16
	.save	{r0, r1, r2, lr}
	push	{r0, r1, r2, lr}
.LCFI17:
	.cfi_def_cfa_offset 32
	.cfi_offset 0, -32
	.cfi_offset 1, -28
	.cfi_offset 2, -24
	.cfi_offset 14, -20
.LVL151:
	.loc 1 28 0
	add	r3, sp, #16
	.loc 1 31 0
	ldr	r1, .L28
	.loc 1 28 0
	ldmia	r3!, {r2}
	.loc 1 31 0
	mov	r0, #2
.LPIC11:
	add	r1, pc
	.loc 1 30 0
	str	r3, [sp, #4]
	.loc 1 31 0
	bl	__android_log_vprint
	.loc 1 33 0
	add	sp, sp, #12
	@ sp needed for prologue
	pop	{r3}
	add	sp, sp, #16
	bx	r3
.L29:
	.align	2
.L28:
	.word	.LC1-(.LPIC11+4)
	.cfi_endproc
.LFE14:
	.fnend
	.size	bar, .-bar
	.section	.text.trace,"ax",%progbits
	.align	1
	.global	trace
	.code	16
	.thumb_func
	.type	trace, %function
trace:
	.fnstart
.LFB15:
	.loc 1 35 0
	.cfi_startproc
	.save	{r3, lr}
	push	{r3, lr}
.LCFI18:
	.cfi_def_cfa_offset 8
	.cfi_offset 3, -8
	.cfi_offset 14, -4
.LVL152:
	.loc 1 36 0
	ldr	r1, .L31
	ldr	r2, .L31+4
	.loc 1 35 0
	mov	r3, r0
	.loc 1 36 0
.LPIC12:
	add	r1, pc
.LPIC13:
	add	r2, pc
	mov	r0, #6
.LVL153:
	bl	__android_log_print
.LVL154:
	.loc 1 37 0
	@ sp needed for prologue
	pop	{r3, pc}
.L32:
	.align	2
.L31:
	.word	.LC1-(.LPIC12+4)
	.word	.LC2-(.LPIC13+4)
	.cfi_endproc
.LFE15:
	.fnend
	.size	trace, .-trace
	.section	.text.l_tcc_compile_string,"ax",%progbits
	.align	1
	.global	l_tcc_compile_string
	.code	16
	.thumb_func
	.type	l_tcc_compile_string, %function
l_tcc_compile_string:
	.fnstart
.LFB27:
	.loc 1 159 0
	.cfi_startproc
	.save	{r4, r5, r6, r7, lr}
	push	{r4, r5, r6, r7, lr}
.LCFI19:
	.cfi_def_cfa_offset 20
	.cfi_offset 4, -20
	.cfi_offset 5, -16
	.cfi_offset 6, -12
	.cfi_offset 7, -8
	.cfi_offset 14, -4
.LVL155:
	.pad #20
	sub	sp, sp, #20
.LCFI20:
	.cfi_def_cfa_offset 40
	.loc 1 161 0
	mov	r1, #1
	.loc 1 159 0
	str	r0, [sp, #4]
	.loc 1 161 0
	bl	lua_touserdata
.LVL156:
	.loc 1 162 0
	mov	r1, #2
	.loc 1 161 0
	ldr	r6, [r0]
.LVL157:
	.loc 1 162 0
	mov	r2, #0
	ldr	r0, [sp, #4]
.LVL158:
	bl	lua_tolstring
	mov	r1, r0
.LVL159:
	.loc 1 163 0
	mov	r0, r6
.LVL160:
	bl	tcc_compile_string
.LVL161:
	mov	r7, r0
.LVL162:
	.loc 1 164 0
	add	r3, r0, #1
	bne	.L34
	.loc 1 165 0
	ldr	r4, .L38
.LPIC14:
	add	r4, pc
	mov	r0, r4
.LVL163:
	bl	trace
	.loc 1 166 0
	ldr	r0, [sp, #4]
	mov	r1, r4
	bl	lua_pushstring
	.loc 1 167 0
	ldr	r0, [sp, #4]
	bl	lua_error
.L34:
	.loc 1 169 0
	ldr	r1, .L38+4
	add	r2, sp, #4
	mov	r0, r6
.LPIC16:
	add	r1, pc
	bl	tcc_add_symbol
	.loc 1 170 0
	ldr	r4, [sp, #4]
.LVL164:
.LBB6:
.LBB7:
	.loc 1 43 0
	ldr	r1, .L38+8
	mov	r0, r4
.LPIC17:
	add	r1, pc
	bl	lua_pushstring
.LVL165:
	.loc 1 44 0
	ldr	r1, .L38+12
	mov	r0, r4
	bl	lua_rawget
	.loc 1 46 0
	mov	r1, #1
	mov	r0, r4
	neg	r1, r1
	bl	lua_isuserdata
	sub	r5, r0, #0
	beq	.L35
	.loc 1 47 0
	mov	r1, #1
	mov	r0, r4
	neg	r1, r1
	bl	lua_touserdata
	ldr	r5, [r0]
.LVL166:
.L35:
	.loc 1 48 0
	mov	r1, #2
	mov	r0, r4
	neg	r1, r1
	bl	lua_settop
	.loc 1 49 0
	cmp	r5, #0
	bne	.L36
	.loc 1 50 0
	ldr	r1, .L38+16
	mov	r0, r4
.LPIC18:
	add	r1, pc
	bl	luaL_error
.L36:
.LBE7:
.LBE6:
	.loc 1 171 0
	ldr	r1, .L38+20
	mov	r0, r6
	add	r2, sp, #12
.LPIC19:
	add	r1, pc
	.loc 1 170 0
	str	r5, [sp, #12]
.LVL167:
	.loc 1 171 0
	bl	tcc_add_symbol
	.loc 1 173 0
	asr	r3, r7, #31
	ldr	r0, [sp, #4]
	mov	r2, r7
	bl	lua_pushinteger
	.loc 1 175 0
	add	sp, sp, #20
	mov	r0, #1
	@ sp needed for prologue
.LVL168:
.LVL169:
.LVL170:
.LVL171:
	pop	{r4, r5, r6, r7, pc}
.L39:
	.align	2
.L38:
	.word	.LC3-(.LPIC14+4)
	.word	.LC4-(.LPIC16+4)
	.word	.LC5-(.LPIC17+4)
	.word	-1001000
	.word	.LC6-(.LPIC18+4)
	.word	.LC7-(.LPIC19+4)
	.cfi_endproc
.LFE27:
	.fnend
	.size	l_tcc_compile_string, .-l_tcc_compile_string
	.section	.text.l_tcc_add_file,"ax",%progbits
	.align	1
	.global	l_tcc_add_file
	.code	16
	.thumb_func
	.type	l_tcc_add_file, %function
l_tcc_add_file:
	.fnstart
.LFB26:
	.loc 1 144 0
	.cfi_startproc
	.save	{r4, r5, r6, lr}
	push	{r4, r5, r6, lr}
.LCFI21:
	.cfi_def_cfa_offset 16
	.cfi_offset 4, -16
	.cfi_offset 5, -12
	.cfi_offset 6, -8
	.cfi_offset 14, -4
.LVL172:
	.loc 1 146 0
	mov	r1, #1
	.loc 1 144 0
	mov	r5, r0
	.loc 1 146 0
	bl	lua_touserdata
.LVL173:
	.loc 1 147 0
	mov	r1, #2
	.loc 1 146 0
	ldr	r4, [r0]
.LVL174:
	.loc 1 147 0
	mov	r2, #0
	mov	r0, r5
.LVL175:
	bl	lua_tolstring
	mov	r1, r0
.LVL176:
	.loc 1 148 0
	mov	r0, r4
.LVL177:
	bl	tcc_add_file
.LVL178:
	mov	r6, r0
.LVL179:
	.loc 1 149 0
	add	r3, r0, #1
	bne	.L41
	.loc 1 150 0
	ldr	r4, .L42
.LVL180:
.LPIC20:
	add	r4, pc
	mov	r0, r4
.LVL181:
	bl	trace
	.loc 1 151 0
	mov	r0, r5
	mov	r1, r4
	bl	lua_pushstring
	.loc 1 152 0
	mov	r0, r5
	bl	lua_error
.L41:
	.loc 1 154 0
	mov	r0, r5
	asr	r3, r6, #31
	mov	r2, r6
	bl	lua_pushinteger
	.loc 1 156 0
	@ sp needed for prologue
	mov	r0, #1
.LVL182:
.LVL183:
	pop	{r4, r5, r6, pc}
.L43:
	.align	2
.L42:
	.word	.LC8-(.LPIC20+4)
	.cfi_endproc
.LFE26:
	.fnend
	.size	l_tcc_add_file, .-l_tcc_add_file
	.section	.text.error_func,"ax",%progbits
	.align	1
	.code	16
	.thumb_func
	.type	error_func, %function
error_func:
	.fnstart
.LFB17:
	.loc 1 54 0
	.cfi_startproc
	.save	{r3, lr}
	push	{r3, lr}
.LCFI22:
	.cfi_def_cfa_offset 8
	.cfi_offset 3, -8
	.cfi_offset 14, -4
.LVL184:
	.loc 1 55 0
	mov	r0, r1
.LVL185:
	bl	trace
.LVL186:
	.loc 1 56 0
	@ sp needed for prologue
	pop	{r3, pc}
	.cfi_endproc
.LFE17:
	.fnend
	.size	error_func, .-error_func
	.section	.text.pushtccstate,"ax",%progbits
	.align	1
	.global	pushtccstate
	.code	16
	.thumb_func
	.type	pushtccstate, %function
pushtccstate:
	.fnstart
.LFB36:
	.loc 1 286 0
	.cfi_startproc
	.save	{r4, lr}
	push	{r4, lr}
.LCFI23:
	.cfi_def_cfa_offset 8
	.cfi_offset 4, -8
	.cfi_offset 14, -4
.LVL187:
	.loc 1 286 0
	mov	r4, r1
	.loc 1 288 0
	mov	r1, #4
.LVL188:
	bl	lua_newuserdata
.LVL189:
	.loc 1 291 0
	@ sp needed for prologue
	.loc 1 289 0
	str	r4, [r0]
	.loc 1 291 0
	mov	r0, #1
.LVL190:
.LVL191:
	pop	{r4, pc}
	.cfi_endproc
.LFE36:
	.fnend
	.size	pushtccstate, .-pushtccstate
	.section	.text.l_tcc_new,"ax",%progbits
	.align	1
	.global	l_tcc_new
	.code	16
	.thumb_func
	.type	l_tcc_new, %function
l_tcc_new:
	.fnstart
.LFB18:
	.loc 1 60 0
	.cfi_startproc
	.save	{r4, r5, r6, lr}
	push	{r4, r5, r6, lr}
.LCFI24:
	.cfi_def_cfa_offset 16
	.cfi_offset 4, -16
	.cfi_offset 5, -12
	.cfi_offset 6, -8
	.cfi_offset 14, -4
.LVL192:
	.loc 1 60 0
	mov	r6, r0
	.loc 1 62 0
	bl	tcc_new
.LVL193:
	.loc 1 63 0
	sub	r5, r0, #0
	bne	.L47
	.loc 1 64 0
	ldr	r4, .L49
.LPIC22:
	add	r4, pc
	mov	r0, r4
	bl	trace
	.loc 1 65 0
	mov	r1, r4
	mov	r0, r6
	bl	lua_pushstring
	.loc 1 66 0
	mov	r0, r6
	bl	lua_error
	.loc 1 67 0
	mov	r0, r5
	b	.L48
.L47:
	.loc 1 69 0
	ldr	r1, .L49+4
	mov	r0, r5
.LPIC24:
	add	r1, pc
	bl	tcc_set_options
	.loc 1 70 0
	ldr	r2, .L49+8
	mov	r0, r5
	mov	r1, #0
.LPIC25:
	add	r2, pc
	bl	tcc_set_error_func
	.loc 1 71 0
	ldr	r1, .L49+12
	mov	r0, r5
.LPIC26:
	add	r1, pc
	bl	tcc_set_lib_path
	.loc 1 72 0
	ldr	r2, .L49+16
	ldr	r1, .L49+20
	mov	r0, r5
.LPIC29:
	add	r2, pc
	ldr	r2, [r2]
.LPIC27:
	add	r1, pc
	bl	tcc_add_symbol
	.loc 1 75 0
	mov	r1, #0
	mov	r0, r5
	bl	tcc_set_output_type
	.loc 1 77 0
	mov	r0, r6
	mov	r1, r5
	bl	pushtccstate
	.loc 1 78 0
	mov	r0, #1
.L48:
	.loc 1 79 0
	@ sp needed for prologue
.LVL194:
	pop	{r4, r5, r6, pc}
.L50:
	.align	2
.L49:
	.word	.LC9-(.LPIC22+4)
	.word	.LC10-(.LPIC24+4)
	.word	error_func-(.LPIC25+4)
	.word	.LC11-(.LPIC26+4)
	.word	bar(GOT_PREL)+(.-(.LPIC29+4))
	.word	.LC12-(.LPIC27+4)
	.cfi_endproc
.LFE18:
	.fnend
	.size	l_tcc_new, .-l_tcc_new
	.section	.text.pushvoid,"ax",%progbits
	.align	1
	.global	pushvoid
	.code	16
	.thumb_func
	.type	pushvoid, %function
pushvoid:
	.fnstart
.LFB37:
	.loc 1 293 0
	.cfi_startproc
	.save	{r4, lr}
	push	{r4, lr}
.LCFI25:
	.cfi_def_cfa_offset 8
	.cfi_offset 4, -8
	.cfi_offset 14, -4
.LVL195:
	.loc 1 293 0
	mov	r4, r1
	.loc 1 295 0
	mov	r1, #4
.LVL196:
	bl	lua_newuserdata
.LVL197:
	.loc 1 298 0
	@ sp needed for prologue
	.loc 1 296 0
	str	r4, [r0]
	.loc 1 298 0
	mov	r0, #1
.LVL198:
.LVL199:
	pop	{r4, pc}
	.cfi_endproc
.LFE37:
	.fnend
	.size	pushvoid, .-pushvoid
	.section	.text.l_tcc_get_symbol,"ax",%progbits
	.align	1
	.global	l_tcc_get_symbol
	.code	16
	.thumb_func
	.type	l_tcc_get_symbol, %function
l_tcc_get_symbol:
	.fnstart
.LFB33:
	.loc 1 236 0
	.cfi_startproc
	.save	{r3, r4, r5, lr}
	push	{r3, r4, r5, lr}
.LCFI26:
	.cfi_def_cfa_offset 16
	.cfi_offset 3, -16
	.cfi_offset 4, -12
	.cfi_offset 5, -8
	.cfi_offset 14, -4
.LVL200:
	.loc 1 239 0
	mov	r1, #1
	.loc 1 236 0
	mov	r4, r0
	.loc 1 239 0
	bl	lua_touserdata
.LVL201:
	.loc 1 240 0
	mov	r2, #0
	.loc 1 239 0
	ldr	r5, [r0]
.LVL202:
	.loc 1 240 0
	mov	r1, #2
	mov	r0, r4
.LVL203:
	bl	lua_tolstring
	mov	r1, r0
.LVL204:
	.loc 1 241 0
	mov	r0, r5
.LVL205:
	bl	tcc_get_symbol
.LVL206:
	mov	r1, r0
	mov	r0, r4
	bl	pushvoid
	.loc 1 243 0
	@ sp needed for prologue
	mov	r0, #1
.LVL207:
.LVL208:
	pop	{r3, r4, r5, pc}
	.cfi_endproc
.LFE33:
	.fnend
	.size	l_tcc_get_symbol, .-l_tcc_get_symbol
	.section	.text.luaopen_tcc,"ax",%progbits
	.align	1
	.global	luaopen_tcc
	.code	16
	.thumb_func
	.type	luaopen_tcc, %function
luaopen_tcc:
	.fnstart
.LFB38:
	.loc 1 302 0
	.cfi_startproc
	.save	{r0, r1, r4, lr}
	push	{r0, r1, r4, lr}
.LCFI27:
	.cfi_def_cfa_offset 16
	.cfi_offset 0, -16
	.cfi_offset 1, -12
	.cfi_offset 4, -8
	.cfi_offset 14, -4
.LVL209:
	.loc 1 324 0
	mov	r3, #136
	.loc 1 302 0
	mov	r4, r0
	.loc 1 324 0
	str	r3, [sp]
	ldr	r3, .L54+4
	ldr	r2, .L54
	bl	luaL_checkversion_
.LVL210:
	mov	r0, r4
	mov	r1, #0
	mov	r2, #18
	bl	lua_createtable
	ldr	r1, .L54+8
	mov	r0, r4
	mov	r2, #0
.LPIC30:
	add	r1, pc
	bl	luaL_setfuncs
	.loc 1 326 0
	@ sp needed for prologue
	mov	r0, #1
.LVL211:
	pop	{r1, r2, r4, pc}
.L55:
	.align	3
.L54:
	.word	0
	.word	1082093568
	.word	.LANCHOR0-(.LPIC30+4)
	.cfi_endproc
.LFE38:
	.fnend
	.size	luaopen_tcc, .-luaopen_tcc
	.section	.data.rel.ro,"aw",%progbits
	.align	2
.LANCHOR0 = . + 0
	.type	funcs.3910, %object
	.size	funcs.3910, 152
funcs.3910:
	.word	.LC13
	.word	l_tcc_new
	.word	.LC14
	.word	l_tcc_delete
	.word	.LC15
	.word	l_tcc_set_lib_path
	.word	.LC16
	.word	l_tcc_set_options
	.word	.LC17
	.word	l_tcc_add_include_path
	.word	.LC18
	.word	l_tcc_add_sysinclude_path
	.word	.LC19
	.word	l_tcc_define_symbol
	.word	.LC20
	.word	l_tcc_undefine_symbol
	.word	.LC21
	.word	l_tcc_add_file
	.word	.LC22
	.word	l_tcc_compile_string
	.word	.LC23
	.word	l_tcc_set_output_type
	.word	.LC24
	.word	l_tcc_add_library_path
	.word	.LC25
	.word	l_tcc_add_library
	.word	.LC26
	.word	l_tcc_output_file
	.word	.LC27
	.word	l_tcc_run
	.word	.LC28
	.word	l_tcc_get_symbol
	.word	.LC29
	.word	l_tcc_get_function
	.word	.LC30
	.word	l_tcc_call
	.word	0
	.word	0
	.section	.rodata.str1.1,"aMS",%progbits,1
.LC0:
	.ascii	"foo\000"
.LC1:
	.ascii	"tcc\000"
.LC2:
	.ascii	"%s\000"
.LC3:
	.ascii	"Could not tcc_compile_string\000"
.LC4:
	.ascii	"L\000"
.LC5:
	.ascii	"_JNIEnv\000"
.LC6:
	.ascii	"Invalid JNI Environment.\000"
.LC7:
	.ascii	"env\000"
.LC8:
	.ascii	"Could not tcc_add_file\000"
.LC9:
	.ascii	"Could not create tcc state\000"
.LC10:
	.ascii	"-D__GNUC__ -D__ANDROID__\000"
.LC11:
	.ascii	"/system/lib\000"
.LC12:
	.ascii	"printf\000"
.LC13:
	.ascii	"new\000"
.LC14:
	.ascii	"delete\000"
.LC15:
	.ascii	"set_lib_path\000"
.LC16:
	.ascii	"set_options\000"
.LC17:
	.ascii	"add_include_path\000"
.LC18:
	.ascii	"add_sysinclude_path\000"
.LC19:
	.ascii	"define_symbol\000"
.LC20:
	.ascii	"undefine_symbol\000"
.LC21:
	.ascii	"add_file\000"
.LC22:
	.ascii	"compile_string\000"
.LC23:
	.ascii	"set_output_type\000"
.LC24:
	.ascii	"add_library_path\000"
.LC25:
	.ascii	"add_library\000"
.LC26:
	.ascii	"output_file\000"
.LC27:
	.ascii	"run\000"
.LC28:
	.ascii	"get_symbol\000"
.LC29:
	.ascii	"get_function\000"
.LC30:
	.ascii	"call\000"
	.text
.Letext0:
	.file 2 "/data/data/com.aide.ui/files/ndksupport-20150601/android-ndk-aide/toolchains/arm-linux-androideabi-4.6/prebuilt/linux-arm/bin/../lib/gcc/arm-linux-androideabi/4.6/include/stdarg.h"
	.file 3 "jni/tcc/libtcc.h"
	.file 4 "/data/data/com.aide.ui/files/ndksupport-20150601/android-ndk-aide/platforms/android-14/arch-arm/usr/include/jni.h"
	.file 5 "/data/data/com.aide.ui/files/ndksupport-20150601/android-ndk-aide/platforms/android-14/arch-arm/usr/include/android/log.h"
	.file 6 "<built-in>"
	.file 7 "jni/tcc/../lua/lua.h"
	.file 8 "jni/tcc/../lua/lauxlib.h"
	.section	.note.GNU-stack,"",%progbits
