	.arch armv5te
	.fpu softvfp
	.eabi_attribute 20, 1
	.eabi_attribute 21, 1
	.eabi_attribute 23, 3
	.eabi_attribute 24, 1
	.eabi_attribute 25, 1
	.eabi_attribute 26, 2
	.eabi_attribute 30, 4
	.eabi_attribute 18, 4
	.code	16
	.file	"luv.c"
	.text
.Ltext0:
	.cfi_sections	.debug_frame
	.section	.text.luv_udp_open,"ax",%progbits
	.align	1
	.code	16
	.thumb_func
	.type	luv_udp_open, %function
luv_udp_open:
	.fnstart
.LFB173:
	.file 1 "jni/luv/luv/udp.c"
	.loc 1 27 0
	.cfi_startproc
.LVL0:
	.loc 1 29 0
	mov	r0, #0
.LVL1:
	@ sp needed for prologue
	bx	lr
	.cfi_endproc
.LFE173:
	.fnend
	.size	luv_udp_open, .-luv_udp_open
	.section	.text.luv_udp_bind,"ax",%progbits
	.align	1
	.code	16
	.thumb_func
	.type	luv_udp_bind, %function
luv_udp_bind:
	.fnstart
.LFB174:
	.loc 1 31 0
	.cfi_startproc
.LVL2:
	.loc 1 33 0
	mov	r0, #0
.LVL3:
	@ sp needed for prologue
	bx	lr
	.cfi_endproc
.LFE174:
	.fnend
	.size	luv_udp_bind, .-luv_udp_bind
	.section	.text.luv_udp_getsockname,"ax",%progbits
	.align	1
	.code	16
	.thumb_func
	.type	luv_udp_getsockname, %function
luv_udp_getsockname:
	.fnstart
.LFB175:
	.loc 1 35 0
	.cfi_startproc
.LVL4:
	.loc 1 37 0
	mov	r0, #0
.LVL5:
	@ sp needed for prologue
	bx	lr
	.cfi_endproc
.LFE175:
	.fnend
	.size	luv_udp_getsockname, .-luv_udp_getsockname
	.section	.text.luv_udp_set_membership,"ax",%progbits
	.align	1
	.code	16
	.thumb_func
	.type	luv_udp_set_membership, %function
luv_udp_set_membership:
	.fnstart
.LFB176:
	.loc 1 44 0
	.cfi_startproc
.LVL6:
	.loc 1 46 0
	mov	r0, #0
.LVL7:
	@ sp needed for prologue
	bx	lr
	.cfi_endproc
.LFE176:
	.fnend
	.size	luv_udp_set_membership, .-luv_udp_set_membership
	.section	.text.luv_udp_set_multicast_loop,"ax",%progbits
	.align	1
	.code	16
	.thumb_func
	.type	luv_udp_set_multicast_loop, %function
luv_udp_set_multicast_loop:
	.fnstart
.LFB177:
	.loc 1 48 0
	.cfi_startproc
.LVL8:
	.loc 1 50 0
	mov	r0, #0
.LVL9:
	@ sp needed for prologue
	bx	lr
	.cfi_endproc
.LFE177:
	.fnend
	.size	luv_udp_set_multicast_loop, .-luv_udp_set_multicast_loop
	.section	.text.luv_udp_set_multicast_ttl,"ax",%progbits
	.align	1
	.code	16
	.thumb_func
	.type	luv_udp_set_multicast_ttl, %function
luv_udp_set_multicast_ttl:
	.fnstart
.LFB178:
	.loc 1 52 0
	.cfi_startproc
.LVL10:
	.loc 1 54 0
	mov	r0, #0
.LVL11:
	@ sp needed for prologue
	bx	lr
	.cfi_endproc
.LFE178:
	.fnend
	.size	luv_udp_set_multicast_ttl, .-luv_udp_set_multicast_ttl
	.section	.text.luv_udp_set_multicast_interface,"ax",%progbits
	.align	1
	.code	16
	.thumb_func
	.type	luv_udp_set_multicast_interface, %function
luv_udp_set_multicast_interface:
	.fnstart
.LFB179:
	.loc 1 56 0
	.cfi_startproc
.LVL12:
	.loc 1 58 0
	mov	r0, #0
.LVL13:
	@ sp needed for prologue
	bx	lr
	.cfi_endproc
.LFE179:
	.fnend
	.size	luv_udp_set_multicast_interface, .-luv_udp_set_multicast_interface
	.section	.text.luv_udp_set_broadcast,"ax",%progbits
	.align	1
	.code	16
	.thumb_func
	.type	luv_udp_set_broadcast, %function
luv_udp_set_broadcast:
	.fnstart
.LFB180:
	.loc 1 60 0
	.cfi_startproc
.LVL14:
	.loc 1 62 0
	mov	r0, #0
.LVL15:
	@ sp needed for prologue
	bx	lr
	.cfi_endproc
.LFE180:
	.fnend
	.size	luv_udp_set_broadcast, .-luv_udp_set_broadcast
	.section	.text.luv_udp_set_ttl,"ax",%progbits
	.align	1
	.code	16
	.thumb_func
	.type	luv_udp_set_ttl, %function
luv_udp_set_ttl:
	.fnstart
.LFB181:
	.loc 1 64 0
	.cfi_startproc
.LVL16:
	.loc 1 66 0
	mov	r0, #0
.LVL17:
	@ sp needed for prologue
	bx	lr
	.cfi_endproc
.LFE181:
	.fnend
	.size	luv_udp_set_ttl, .-luv_udp_set_ttl
	.section	.text.luv_udp_send,"ax",%progbits
	.align	1
	.code	16
	.thumb_func
	.type	luv_udp_send, %function
luv_udp_send:
	.fnstart
.LFB183:
	.loc 1 71 0
	.cfi_startproc
.LVL18:
	.loc 1 74 0
	mov	r0, #0
.LVL19:
	@ sp needed for prologue
	bx	lr
	.cfi_endproc
.LFE183:
	.fnend
	.size	luv_udp_send, .-luv_udp_send
	.section	.text.luv_udp_try_send,"ax",%progbits
	.align	1
	.code	16
	.thumb_func
	.type	luv_udp_try_send, %function
luv_udp_try_send:
	.fnstart
.LFB184:
	.loc 1 76 0
	.cfi_startproc
.LVL20:
	.loc 1 78 0
	mov	r0, #0
.LVL21:
	@ sp needed for prologue
	bx	lr
	.cfi_endproc
.LFE184:
	.fnend
	.size	luv_udp_try_send, .-luv_udp_try_send
	.section	.text.luv_udp_recv_start,"ax",%progbits
	.align	1
	.code	16
	.thumb_func
	.type	luv_udp_recv_start, %function
luv_udp_recv_start:
	.fnstart
.LFB186:
	.loc 1 83 0
	.cfi_startproc
.LVL22:
	.loc 1 85 0
	mov	r0, #0
.LVL23:
	@ sp needed for prologue
	bx	lr
	.cfi_endproc
.LFE186:
	.fnend
	.size	luv_udp_recv_start, .-luv_udp_recv_start
	.section	.text.luv_udp_recv_stop,"ax",%progbits
	.align	1
	.code	16
	.thumb_func
	.type	luv_udp_recv_stop, %function
luv_udp_recv_stop:
	.fnstart
.LFB187:
	.loc 1 87 0
	.cfi_startproc
.LVL24:
	.loc 1 89 0
	mov	r0, #0
.LVL25:
	@ sp needed for prologue
	bx	lr
	.cfi_endproc
.LFE187:
	.fnend
	.size	luv_udp_recv_stop, .-luv_udp_recv_stop
	.section	.text.luv_af_num_to_string,"ax",%progbits
	.align	1
	.code	16
	.thumb_func
	.type	luv_af_num_to_string, %function
luv_af_num_to_string:
	.fnstart
.LFB293:
	.file 2 "jni/luv/luv/constants.c"
	.loc 2 346 0
	.cfi_startproc
	.save	{lr}
	push	{lr}
.LCFI0:
	.cfi_def_cfa_offset 4
	.cfi_offset 14, -4
.LVL26:
	.loc 2 347 0
	sub	r0, r0, #1
.LVL27:
	cmp	r0, #16
	bhi	.L15
	bl	__gnu_thumb1_case_uqi
.L26:
	.byte	(.L16-.L26)/2
	.byte	(.L27-.L26)/2
	.byte	(.L18-.L26)/2
	.byte	(.L19-.L26)/2
	.byte	(.L20-.L26)/2
	.byte	(.L15-.L26)/2
	.byte	(.L15-.L26)/2
	.byte	(.L21-.L26)/2
	.byte	(.L22-.L26)/2
	.byte	(.L23-.L26)/2
	.byte	(.L15-.L26)/2
	.byte	(.L15-.L26)/2
	.byte	(.L15-.L26)/2
	.byte	(.L15-.L26)/2
	.byte	(.L15-.L26)/2
	.byte	(.L24-.L26)/2
	.byte	(.L25-.L26)/2
	.align	1
.L16:
	.loc 2 349 0
	ldr	r0, .L28
.LVL28:
.LPIC0:
	add	r0, pc
	b	.L17
.LVL29:
.L23:
	.loc 2 355 0
	ldr	r0, .L28+4
.LVL30:
.LPIC2:
	add	r0, pc
	b	.L17
.LVL31:
.L19:
	.loc 2 358 0
	ldr	r0, .L28+8
.LVL32:
.LPIC3:
	add	r0, pc
	b	.L17
.LVL33:
.L24:
	.loc 2 361 0
	ldr	r0, .L28+12
.LVL34:
.LPIC4:
	add	r0, pc
	b	.L17
.LVL35:
.L22:
	.loc 2 364 0
	ldr	r0, .L28+16
.LVL36:
.LPIC5:
	add	r0, pc
	b	.L17
.LVL37:
.L18:
	.loc 2 367 0
	ldr	r0, .L28+20
.LVL38:
.LPIC6:
	add	r0, pc
	b	.L17
.LVL39:
.L21:
	.loc 2 370 0
	ldr	r0, .L28+24
.LVL40:
.LPIC7:
	add	r0, pc
	b	.L17
.LVL41:
.L20:
	.loc 2 373 0
	ldr	r0, .L28+28
.LVL42:
.LPIC8:
	add	r0, pc
	b	.L17
.LVL43:
.L25:
	.loc 2 376 0
	ldr	r0, .L28+32
.LVL44:
.LPIC9:
	add	r0, pc
	b	.L17
.LVL45:
.L15:
	.loc 2 379 0
	mov	r0, #0
.LVL46:
	b	.L17
.LVL47:
.L27:
	.loc 2 352 0
	ldr	r0, .L28+36
.LVL48:
.LPIC1:
	add	r0, pc
.L17:
	.loc 2 380 0
	@ sp needed for prologue
	pop	{pc}
.L29:
	.align	2
.L28:
	.word	.LC0-(.LPIC0+4)
	.word	.LC2-(.LPIC2+4)
	.word	.LC3-(.LPIC3+4)
	.word	.LC4-(.LPIC4+4)
	.word	.LC5-(.LPIC5+4)
	.word	.LC6-(.LPIC6+4)
	.word	.LC7-(.LPIC7+4)
	.word	.LC8-(.LPIC8+4)
	.word	.LC9-(.LPIC9+4)
	.word	.LC1-(.LPIC1+4)
	.cfi_endproc
.LFE293:
	.fnend
	.size	luv_af_num_to_string, .-luv_af_num_to_string
	.section	.text.luv_alloc_cb,"ax",%progbits
	.align	1
	.code	16
	.thumb_func
	.type	luv_alloc_cb, %function
luv_alloc_cb:
	.fnstart
.LFB131:
	.file 3 "jni/luv/luv/stream.c"
	.loc 3 87 0
	.cfi_startproc
	.save	{r3, r4, r5, lr}
	push	{r3, r4, r5, lr}
.LCFI1:
	.cfi_def_cfa_offset 16
	.cfi_offset 3, -16
	.cfi_offset 4, -12
	.cfi_offset 5, -8
	.cfi_offset 14, -4
.LVL49:
	.loc 3 88 0
	mov	r0, r1
.LVL50:
	.loc 3 87 0
	mov	r5, r1
	mov	r4, r2
	.loc 3 88 0
	bl	malloc
.LVL51:
	.loc 3 91 0
	@ sp needed for prologue
	.loc 3 90 0
	stmia	r4!, {r0, r5}
.LVL52:
.LVL53:
.LVL54:
	.loc 3 91 0
	pop	{r3, r4, r5, pc}
	.cfi_endproc
.LFE131:
	.fnend
	.size	luv_alloc_cb, .-luv_alloc_cb
	.section	.text.luv_thread_arg_clear,"ax",%progbits
	.align	1
	.code	16
	.thumb_func
	.type	luv_thread_arg_clear, %function
luv_thread_arg_clear:
	.fnstart
.LFB243:
	.file 4 "jni/luv/luv/thread.c"
	.loc 4 100 0
	.cfi_startproc
	.save	{r4, r5, r6, lr}
	push	{r4, r5, r6, lr}
.LCFI2:
	.cfi_def_cfa_offset 16
	.cfi_offset 4, -16
	.cfi_offset 5, -12
	.cfi_offset 6, -8
	.cfi_offset 14, -4
.LVL55:
	.loc 4 100 0
	mov	r5, r0
	.loc 4 102 0
	mov	r4, r0
	mov	r6, #0
	b	.L32
.LVL56:
.L34:
	.loc 4 104 0
	ldr	r3, [r4, #8]
	cmp	r3, #4
	bne	.L33
	.loc 4 106 0
	ldr	r0, [r4, #16]
	bl	free
.L33:
	.loc 4 102 0
	add	r6, r6, #1
.LVL57:
	add	r4, r4, #16
.LVL58:
.L32:
	.loc 4 102 0 is_stmt 0 discriminator 1
	ldr	r3, [r5]
	cmp	r6, r3
	blt	.L34
	.loc 4 109 0 is_stmt 1
	mov	r3, #0
	str	r3, [r5]
	.loc 4 110 0
	@ sp needed for prologue
.LVL59:
.LVL60:
	pop	{r4, r5, r6, pc}
	.cfi_endproc
.LFE243:
	.fnend
	.size	luv_thread_arg_clear, .-luv_thread_arg_clear
	.section	.text.luv_clean_options,"ax",%progbits
	.align	1
	.code	16
	.thumb_func
	.type	luv_clean_options, %function
luv_clean_options:
	.fnstart
.LFB119:
	.file 5 "jni/luv/luv/process.c"
	.loc 5 43 0
	.cfi_startproc
	.save	{r4, lr}
	push	{r4, lr}
.LCFI3:
	.cfi_def_cfa_offset 8
	.cfi_offset 4, -8
	.cfi_offset 14, -4
.LVL61:
	.loc 5 43 0
	mov	r4, r0
	.loc 5 44 0
	ldr	r0, [r0, #8]
.LVL62:
	bl	free
	.loc 5 45 0
	ldr	r0, [r4, #28]
	bl	free
	.loc 5 46 0
	ldr	r0, [r4, #12]
	bl	free
	.loc 5 47 0
	@ sp needed for prologue
.LVL63:
	pop	{r4, pc}
	.cfi_endproc
.LFE119:
	.fnend
	.size	luv_clean_options, .-luv_clean_options
	.section	.text.luv_thread_gc,"ax",%progbits
	.align	1
	.code	16
	.thumb_func
	.type	luv_thread_gc, %function
luv_thread_gc:
	.fnstart
.LFB248:
	.loc 4 182 0
	.cfi_startproc
	.save	{r3, r4, r5, lr}
	push	{r3, r4, r5, lr}
.LCFI4:
	.cfi_def_cfa_offset 16
	.cfi_offset 3, -16
	.cfi_offset 4, -12
	.cfi_offset 5, -8
	.cfi_offset 14, -4
.LVL64:
.LBB138:
.LBB139:
	.loc 4 178 0
	ldr	r2, .L37
	mov	r1, #1
.LBE139:
.LBE138:
	.loc 4 185 0
	mov	r5, #0
.LBB141:
.LBB140:
	.loc 4 178 0
.LPIC18:
	add	r2, pc
	bl	luaL_checkudata
.LVL65:
	mov	r4, r0
.LVL66:
.LBE140:
.LBE141:
	.loc 4 184 0
	ldr	r0, [r0, #4]
.LVL67:
	bl	free
	.loc 4 187 0
	mov	r0, r4
	.loc 4 185 0
	str	r5, [r4, #4]
	.loc 4 186 0
	str	r5, [r4, #8]
	.loc 4 187 0
	add	r0, r0, #16
	bl	luv_thread_arg_clear
	.loc 4 189 0
	@ sp needed for prologue
	mov	r0, r5
.LVL68:
	pop	{r3, r4, r5, pc}
.L38:
	.align	2
.L37:
	.word	.LC10-(.LPIC18+4)
	.cfi_endproc
.LFE248:
	.fnend
	.size	luv_thread_gc, .-luv_thread_gc
	.section	.text.luv_thread_arg_set,"ax",%progbits
	.align	1
	.code	16
	.thumb_func
	.type	luv_thread_arg_set, %function
luv_thread_arg_set:
	.fnstart
.LFB242:
	.loc 4 55 0
	.cfi_startproc
	.save	{r4, r5, r6, r7, lr}
	push	{r4, r5, r6, r7, lr}
.LCFI5:
	.cfi_def_cfa_offset 20
	.cfi_offset 4, -20
	.cfi_offset 5, -16
	.cfi_offset 6, -12
	.cfi_offset 7, -8
	.cfi_offset 14, -4
.LVL69:
	.pad #28
	sub	sp, sp, #28
.LCFI6:
	.cfi_def_cfa_offset 48
	.loc 4 55 0
	mov	r6, r0
	str	r1, [sp, #8]
	str	r3, [sp, #16]
	.loc 4 57 0
	sub	r7, r2, #0
	bgt	.L40
	mov	r7, #1
.L40:
.LVL70:
	.loc 4 59 0 discriminator 2
	mov	r3, r7
.LVL71:
	add	r3, r3, #9
	.loc 4 58 0
	mov	r5, r7
	.loc 4 59 0 discriminator 2
	str	r3, [sp, #20]
	.loc 4 59 0 is_stmt 0
	b	.L41
.LVL72:
.L52:
.LBB142:
	.loc 4 61 0 is_stmt 1
	ldr	r3, [sp, #8]
	lsl	r4, r0, #4
	add	r4, r4, #8
	.loc 4 62 0
	mov	r0, r6
	mov	r1, r5
	.loc 4 61 0
	add	r4, r3, r4
.LVL73:
	.loc 4 62 0
	bl	lua_type
	str	r0, [r4]
	.loc 4 63 0
	cmp	r0, #4
	bhi	.L42
	bl	__gnu_thumb1_case_uqi
.L48:
	.byte	(.L43-.L48)/2
	.byte	(.L44-.L48)/2
	.byte	(.L45-.L48)/2
	.byte	(.L46-.L48)/2
	.byte	(.L47-.L48)/2
	.align	1
.L44:
	.loc 4 68 0
	mov	r0, r6
	mov	r1, r5
	bl	lua_toboolean
	b	.L53
.L46:
	.loc 4 71 0
	mov	r0, r6
	mov	r1, r5
	mov	r2, #0
	bl	lua_tonumberx
	str	r0, [r4, #8]
	str	r1, [r4, #12]
	.loc 4 72 0
	b	.L43
.L45:
	.loc 4 74 0
	mov	r0, r6
	mov	r1, r5
	bl	lua_touserdata
.L53:
	str	r0, [r4, #8]
	.loc 4 75 0
	b	.L43
.L47:
.LBB143:
	.loc 4 78 0
	mov	r2, r4
	add	r2, r2, #12
	mov	r1, r5
	mov	r0, r6
	bl	lua_tolstring
	.loc 4 79 0
	ldr	r3, [r4, #12]
	.loc 4 78 0
	str	r0, [sp, #12]
.LVL74:
	.loc 4 79 0
	mov	r0, r3
.LVL75:
	str	r3, [sp, #4]
	bl	malloc
	str	r0, [r4, #8]
	.loc 4 80 0
	cmp	r0, #0
	bne	.L49
	mov	r4, r0
.LVL76:
	.loc 4 82 0
	ldr	r0, .L54
.LPIC19:
	add	r0, pc
	bl	perror
	.loc 4 83 0
	mov	r0, r4
	b	.L50
.LVL77:
.L49:
	.loc 4 85 0
	ldr	r1, [sp, #12]
	ldr	r2, [sp, #4]
	bl	memcpy
	.loc 4 86 0
	b	.L43
.LVL78:
.L42:
	mov	r1, r0
.LBE143:
	.loc 4 89 0
	mov	r0, r6
	bl	lua_type
	mov	r1, r0
	mov	r0, r6
	bl	lua_typename
	mov	r2, r0
	ldr	r0, .L54+4
	ldr	r1, .L54+8
	mov	r3, r5
.LPIC22:
	add	r0, pc
	ldr	r0, [r0]
.LPIC21:
	add	r1, pc
	add	r0, r0, #168
	bl	fprintf
	.loc 4 91 0
	mov	r0, #1
	neg	r0, r0
	bl	exit
.L43:
	.loc 4 94 0
	add	r5, r5, #1
.LVL79:
.L41:
.LBE142:
	.loc 4 59 0 discriminator 1
	ldr	r3, [sp, #16]
	sub	r0, r5, r7
	cmp	r5, r3
	bgt	.L51
	.loc 4 59 0 is_stmt 0 discriminator 2
	ldr	r3, [sp, #20]
	cmp	r5, r3
	ble	.L52
.L51:
	.loc 4 96 0 is_stmt 1
	ldr	r3, [sp, #8]
	str	r0, [r3]
.L50:
	.loc 4 98 0
	add	sp, sp, #28
	@ sp needed for prologue
.LVL80:
.LVL81:
.LVL82:
	pop	{r4, r5, r6, r7, pc}
.L55:
	.align	2
.L54:
	.word	.LC11-(.LPIC19+4)
	.word	__sF(GOT_PREL)+(.-(.LPIC22+4))
	.word	.LC12-(.LPIC21+4)
	.cfi_endproc
.LFE242:
	.fnend
	.size	luv_thread_arg_set, .-luv_thread_arg_set
	.section	.text.luv_error,"ax",%progbits
	.align	1
	.code	16
	.thumb_func
	.type	luv_error, %function
luv_error:
	.fnstart
.LFB39:
	.file 6 "jni/luv/luv/util.c"
	.loc 6 42 0
	.cfi_startproc
	.save	{r4, r5, r6, lr}
	push	{r4, r5, r6, lr}
.LCFI7:
	.cfi_def_cfa_offset 16
	.cfi_offset 4, -16
	.cfi_offset 5, -12
	.cfi_offset 6, -8
	.cfi_offset 14, -4
.LVL83:
	.loc 6 42 0
	mov	r4, r1
	mov	r5, r0
	.loc 6 43 0
	bl	lua_pushnil
.LVL84:
	.loc 6 44 0
	mov	r0, r4
	bl	uv_err_name
	mov	r6, r0
	mov	r0, r4
	bl	uv_strerror
	ldr	r1, .L57
	mov	r3, r0
	mov	r2, r6
.LPIC23:
	add	r1, pc
	mov	r0, r5
	bl	lua_pushfstring
	.loc 6 45 0
	mov	r0, r4
	bl	uv_err_name
	mov	r1, r0
	mov	r0, r5
	bl	lua_pushstring
	.loc 6 47 0
	@ sp needed for prologue
	mov	r0, #3
.LVL85:
.LVL86:
	pop	{r4, r5, r6, pc}
.L58:
	.align	2
.L57:
	.word	.LC13-(.LPIC23+4)
	.cfi_endproc
.LFE39:
	.fnend
	.size	luv_error, .-luv_error
	.section	.text.luv_req_tostring,"ax",%progbits
	.align	1
	.code	16
	.thumb_func
	.type	luv_req_tostring, %function
luv_req_tostring:
	.fnstart
.LFB62:
	.file 7 "jni/luv/luv/req.c"
	.loc 7 25 0
	.cfi_startproc
	.save	{r4, lr}
	push	{r4, lr}
.LCFI8:
	.cfi_def_cfa_offset 8
	.cfi_offset 4, -8
	.cfi_offset 14, -4
.LVL87:
	.loc 7 26 0
	ldr	r2, .L73
	mov	r1, #1
	.loc 7 25 0
	mov	r4, r0
	.loc 7 26 0
.LPIC24:
	add	r2, pc
	bl	luaL_checkudata
.LVL88:
	mov	r2, r0
.LVL89:
	.loc 7 27 0
	ldr	r0, [r0, #4]
.LVL90:
	sub	r0, r0, #1
	cmp	r0, #8
	bhi	.L60
	bl	__gnu_thumb1_case_uqi
.L70:
	.byte	(.L61-.L70)/2
	.byte	(.L62-.L70)/2
	.byte	(.L63-.L70)/2
	.byte	(.L64-.L70)/2
	.byte	(.L65-.L70)/2
	.byte	(.L66-.L70)/2
	.byte	(.L67-.L70)/2
	.byte	(.L68-.L70)/2
	.byte	(.L69-.L70)/2
	.align	1
.L61:
	.loc 7 29 0
	ldr	r1, .L73+4
.LPIC25:
	add	r1, pc
	b	.L72
.L62:
	ldr	r1, .L73+8
.LPIC26:
	add	r1, pc
	b	.L72
.L63:
	ldr	r1, .L73+12
.LPIC27:
	add	r1, pc
	b	.L72
.L64:
	ldr	r1, .L73+16
.LPIC28:
	add	r1, pc
	b	.L72
.L65:
	ldr	r1, .L73+20
.LPIC29:
	add	r1, pc
	b	.L72
.L66:
	ldr	r1, .L73+24
.LPIC30:
	add	r1, pc
	b	.L72
.L67:
	ldr	r1, .L73+28
.LPIC31:
	add	r1, pc
	b	.L72
.L68:
	ldr	r1, .L73+32
.LPIC32:
	add	r1, pc
	b	.L72
.L69:
	ldr	r1, .L73+36
.LPIC33:
	add	r1, pc
	b	.L72
.L60:
	.loc 7 31 0
	ldr	r1, .L73+40
.LPIC34:
	add	r1, pc
.L72:
	mov	r0, r4
	bl	lua_pushfstring
.LVL91:
	.loc 7 34 0
	@ sp needed for prologue
	mov	r0, #1
.LVL92:
	pop	{r4, pc}
.L74:
	.align	2
.L73:
	.word	.LC14-(.LPIC24+4)
	.word	.LC15-(.LPIC25+4)
	.word	.LC16-(.LPIC26+4)
	.word	.LC17-(.LPIC27+4)
	.word	.LC18-(.LPIC28+4)
	.word	.LC19-(.LPIC29+4)
	.word	.LC20-(.LPIC30+4)
	.word	.LC21-(.LPIC31+4)
	.word	.LC22-(.LPIC32+4)
	.word	.LC23-(.LPIC33+4)
	.word	.LC15-(.LPIC34+4)
	.cfi_endproc
.LFE62:
	.fnend
	.size	luv_req_tostring, .-luv_req_tostring
	.section	.text.luv_thread_tostring,"ax",%progbits
	.align	1
	.code	16
	.thumb_func
	.type	luv_thread_tostring, %function
luv_thread_tostring:
	.fnstart
.LFB249:
	.loc 4 192 0
	.cfi_startproc
	.save	{r4, lr}
	push	{r4, lr}
.LCFI9:
	.cfi_def_cfa_offset 8
	.cfi_offset 4, -8
	.cfi_offset 14, -4
.LVL93:
.LBB144:
.LBB145:
	.loc 4 178 0
	ldr	r2, .L76
	mov	r1, #1
.LBE145:
.LBE144:
	.loc 4 192 0
	mov	r4, r0
.LBB147:
.LBB146:
	.loc 4 178 0
.LPIC35:
	add	r2, pc
	bl	luaL_checkudata
.LVL94:
.LBE146:
.LBE147:
	.loc 4 194 0
	ldr	r1, .L76+4
	ldr	r2, [r0]
	mov	r0, r4
.LVL95:
.LPIC36:
	add	r1, pc
	bl	lua_pushfstring
	.loc 4 196 0
	@ sp needed for prologue
	mov	r0, #1
.LVL96:
	pop	{r4, pc}
.L77:
	.align	2
.L76:
	.word	.LC10-(.LPIC35+4)
	.word	.LC24-(.LPIC36+4)
	.cfi_endproc
.LFE249:
	.fnend
	.size	luv_thread_tostring, .-luv_thread_tostring
	.section	.text.luv_work_ctx_tostring,"ax",%progbits
	.align	1
	.code	16
	.thumb_func
	.type	luv_work_ctx_tostring, %function
luv_work_ctx_tostring:
	.fnstart
.LFB260:
	.file 8 "jni/luv/luv/work.c"
	.loc 8 57 0
	.cfi_startproc
	.save	{r4, lr}
	push	{r4, lr}
.LCFI10:
	.cfi_def_cfa_offset 8
	.cfi_offset 4, -8
	.cfi_offset 14, -4
.LVL97:
.LBB148:
.LBB149:
	.loc 8 42 0
	ldr	r2, .L79
	mov	r1, #1
.LBE149:
.LBE148:
	.loc 8 57 0
	mov	r4, r0
.LBB152:
.LBB150:
	.loc 8 42 0
.LPIC37:
	add	r2, pc
	bl	luaL_checkudata
.LVL98:
.LBE150:
.LBE152:
	.loc 8 59 0
	ldr	r1, .L79+4
.LBB153:
.LBB151:
	.loc 8 42 0
	mov	r2, r0
.LVL99:
.LBE151:
.LBE153:
	.loc 8 59 0
	mov	r0, r4
.LVL100:
.LPIC38:
	add	r1, pc
	bl	lua_pushfstring
.LVL101:
	.loc 8 61 0
	@ sp needed for prologue
	mov	r0, #1
.LVL102:
	pop	{r4, pc}
.L80:
	.align	2
.L79:
	.word	.LC25-(.LPIC37+4)
	.word	.LC26-(.LPIC38+4)
	.cfi_endproc
.LFE260:
	.fnend
	.size	luv_work_ctx_tostring, .-luv_work_ctx_tostring
	.section	.text.luv_check_continuation,"ax",%progbits
	.align	1
	.code	16
	.thumb_func
	.type	luv_check_continuation, %function
luv_check_continuation:
	.fnstart
.LFB47:
	.file 9 "jni/luv/luv/lreq.c"
	.loc 9 20 0
	.cfi_startproc
	.save	{r3, r4, r5, lr}
	push	{r3, r4, r5, lr}
.LCFI11:
	.cfi_def_cfa_offset 16
	.cfi_offset 3, -16
	.cfi_offset 4, -12
	.cfi_offset 5, -8
	.cfi_offset 14, -4
.LVL103:
	.loc 9 20 0
	mov	r4, r0
	mov	r5, r1
	.loc 9 21 0
	bl	lua_type
.LVL104:
	cmp	r0, #0
	ble	.L83
	.loc 9 22 0
	mov	r0, r4
	mov	r1, r5
	mov	r2, #6
	bl	luaL_checktype
	.loc 9 23 0
	mov	r0, r4
	mov	r1, r5
	bl	lua_pushvalue
	.loc 9 24 0
	mov	r0, r4
	ldr	r1, .L84
	bl	luaL_ref
	b	.L82
.L83:
	.loc 9 21 0 discriminator 1
	mov	r0, #2
	neg	r0, r0
.L82:
	.loc 9 25 0
	@ sp needed for prologue
.LVL105:
.LVL106:
	pop	{r3, r4, r5, pc}
.L85:
	.align	2
.L84:
	.word	-1001000
	.cfi_endproc
.LFE47:
	.fnend
	.size	luv_check_continuation, .-luv_check_continuation
	.section	.text.luv_thread_self,"ax",%progbits
	.align	1
	.code	16
	.thumb_func
	.type	luv_thread_self, %function
luv_thread_self:
	.fnstart
.LFB253:
	.loc 4 246 0
	.cfi_startproc
	.save	{r4, r5, r6, lr}
	push	{r4, r5, r6, lr}
.LCFI12:
	.cfi_def_cfa_offset 16
	.cfi_offset 4, -16
	.cfi_offset 5, -12
	.cfi_offset 6, -8
	.cfi_offset 14, -4
.LVL107:
	.loc 4 246 0
	mov	r5, r0
	.loc 4 248 0
	bl	uv_thread_self
.LVL108:
	.loc 4 249 0
	mov	r1, #168
	.loc 4 248 0
	mov	r6, r0
.LVL109:
	.loc 4 249 0
	mov	r0, r5
.LVL110:
	bl	lua_newuserdata
	.loc 4 250 0
	mov	r1, #0
	mov	r2, #168
	.loc 4 249 0
	mov	r4, r0
.LVL111:
	.loc 4 250 0
	bl	memset
.LVL112:
	.loc 4 252 0
	ldr	r2, .L87
	.loc 4 251 0
	str	r6, [r4]
	.loc 4 252 0
	mov	r0, r5
.LPIC39:
	add	r2, pc
	ldr	r1, .L87+4
	bl	lua_getfield
	.loc 4 253 0
	mov	r1, #2
	mov	r0, r5
	neg	r1, r1
	bl	lua_setmetatable
	.loc 4 255 0
	@ sp needed for prologue
	mov	r0, #1
.LVL113:
.LVL114:
.LVL115:
	pop	{r4, r5, r6, pc}
.L88:
	.align	2
.L87:
	.word	.LC10-(.LPIC39+4)
	.word	-1001000
	.cfi_endproc
.LFE253:
	.fnend
	.size	luv_thread_self, .-luv_thread_self
	.section	.text.luv_setup_req,"ax",%progbits
	.align	1
	.code	16
	.thumb_func
	.type	luv_setup_req, %function
luv_setup_req:
	.fnstart
.LFB48:
	.loc 9 29 0
	.cfi_startproc
	.save	{r3, r4, r5, r6, r7, lr}
	push	{r3, r4, r5, r6, r7, lr}
.LCFI13:
	.cfi_def_cfa_offset 24
	.cfi_offset 3, -24
	.cfi_offset 4, -20
	.cfi_offset 5, -16
	.cfi_offset 6, -12
	.cfi_offset 7, -8
	.cfi_offset 14, -4
.LVL116:
	.loc 9 29 0
	mov	r7, r1
	.loc 9 32 0
	mov	r1, #1
.LVL117:
	neg	r1, r1
	mov	r2, #7
	.loc 9 29 0
	mov	r5, r0
	.loc 9 32 0
	bl	luaL_checktype
.LVL118:
	.loc 9 34 0
	mov	r0, #16
	bl	malloc
	.loc 9 35 0
	sub	r4, r0, #0
	bne	.L90
	.loc 9 35 0 is_stmt 0 discriminator 1
	ldr	r1, .L91
	mov	r0, r5
.LPIC40:
	add	r1, pc
	bl	luaL_error
.L90:
	.loc 9 37 0 is_stmt 1
	ldr	r2, .L91+4
	.loc 9 38 0
	mov	r6, #2
	neg	r6, r6
	.loc 9 37 0
.LPIC41:
	add	r2, pc
	mov	r0, r5
	ldr	r1, .L91+8
	bl	lua_getfield
	.loc 9 38 0
	mov	r1, r6
	mov	r0, r5
	bl	lua_setmetatable
	.loc 9 40 0
	mov	r1, #1
	mov	r0, r5
	neg	r1, r1
	bl	lua_pushvalue
	.loc 9 41 0
	mov	r0, r5
	ldr	r1, .L91+8
	bl	luaL_ref
	.loc 9 44 0
	mov	r3, #0
	.loc 9 41 0
	str	r0, [r4]
	.loc 9 42 0
	str	r7, [r4, #4]
	.loc 9 43 0
	str	r6, [r4, #8]
	.loc 9 47 0
	mov	r0, r4
	.loc 9 44 0
	str	r3, [r4, #12]
	.loc 9 47 0
	@ sp needed for prologue
.LVL119:
.LVL120:
	pop	{r3, r4, r5, r6, r7, pc}
.L92:
	.align	2
.L91:
	.word	.LC27-(.LPIC40+4)
	.word	.LC14-(.LPIC41+4)
	.word	-1001000
	.cfi_endproc
.LFE48:
	.fnend
	.size	luv_setup_req, .-luv_setup_req
	.section	.text.luv_setup_handle,"ax",%progbits
	.align	1
	.code	16
	.thumb_func
	.type	luv_setup_handle, %function
luv_setup_handle:
	.fnstart
.LFB41:
	.file 10 "jni/luv/luv/lhandle.c"
	.loc 10 19 0
	.cfi_startproc
	.save	{r4, r5, r6, lr}
	push	{r4, r5, r6, lr}
.LCFI14:
	.cfi_def_cfa_offset 16
	.cfi_offset 4, -16
	.cfi_offset 5, -12
	.cfi_offset 6, -8
	.cfi_offset 14, -4
.LVL121:
	.loc 10 21 0
	mov	r1, #1
	neg	r1, r1
	.loc 10 19 0
	mov	r4, r0
	.loc 10 21 0
	bl	lua_touserdata
.LVL122:
	.loc 10 22 0
	mov	r1, #1
	neg	r1, r1
	mov	r2, #7
	.loc 10 21 0
	mov	r6, r0
.LVL123:
	.loc 10 22 0
	mov	r0, r4
.LVL124:
	bl	luaL_checktype
	.loc 10 24 0
	mov	r0, #12
	bl	malloc
	.loc 10 25 0
	sub	r5, r0, #0
	bne	.L94
	.loc 10 25 0 is_stmt 0 discriminator 1
	ldr	r1, .L116
	mov	r0, r4
.LPIC42:
	add	r1, pc
	bl	luaL_error
.L94:
	.loc 10 30 0 is_stmt 1
	ldr	r0, [r6, #8]
	sub	r0, r0, #1
	cmp	r0, #15
	bhi	.L95
	bl	__gnu_thumb1_case_uqi
.L112:
	.byte	(.L96-.L112)/2
	.byte	(.L97-.L112)/2
	.byte	(.L98-.L112)/2
	.byte	(.L99-.L112)/2
	.byte	(.L100-.L112)/2
	.byte	(.L101-.L112)/2
	.byte	(.L102-.L112)/2
	.byte	(.L103-.L112)/2
	.byte	(.L104-.L112)/2
	.byte	(.L105-.L112)/2
	.byte	(.L106-.L112)/2
	.byte	(.L107-.L112)/2
	.byte	(.L108-.L112)/2
	.byte	(.L109-.L112)/2
	.byte	(.L110-.L112)/2
	.byte	(.L111-.L112)/2
	.align	1
.L96:
	.loc 10 31 0
	ldr	r2, .L116+4
.LPIC43:
	add	r2, pc
	b	.L115
.L97:
	ldr	r2, .L116+8
.LPIC44:
	add	r2, pc
	b	.L115
.L98:
	ldr	r2, .L116+12
.LPIC45:
	add	r2, pc
	b	.L115
.L99:
	ldr	r2, .L116+16
.LPIC46:
	add	r2, pc
	b	.L115
.L100:
	ldr	r2, .L116+20
.LPIC47:
	add	r2, pc
	b	.L115
.L101:
	ldr	r2, .L116+24
.LPIC48:
	add	r2, pc
	b	.L115
.L102:
	ldr	r2, .L116+28
.LPIC49:
	add	r2, pc
	b	.L115
.L103:
	ldr	r2, .L116+32
.LPIC50:
	add	r2, pc
	b	.L115
.L104:
	ldr	r2, .L116+36
.LPIC51:
	add	r2, pc
	b	.L115
.L105:
	ldr	r2, .L116+40
.LPIC52:
	add	r2, pc
	b	.L115
.L106:
	ldr	r2, .L116+44
.LPIC53:
	add	r2, pc
	b	.L115
.L107:
	ldr	r2, .L116+48
.LPIC54:
	add	r2, pc
	b	.L115
.L108:
	ldr	r2, .L116+52
.LPIC55:
	add	r2, pc
	b	.L115
.L109:
	ldr	r2, .L116+56
.LPIC56:
	add	r2, pc
	b	.L115
.L110:
	ldr	r2, .L116+60
.LPIC57:
	add	r2, pc
	b	.L115
.L111:
	ldr	r2, .L116+64
.LPIC58:
	add	r2, pc
.L115:
	.loc 10 38 0
	mov	r6, #2
.LVL125:
	neg	r6, r6
	.loc 10 31 0
	ldr	r1, .L116+68
	mov	r0, r4
	bl	lua_getfield
	.loc 10 38 0
	mov	r1, r6
	mov	r0, r4
	bl	lua_setmetatable
	.loc 10 40 0
	mov	r1, #1
	mov	r0, r4
	neg	r1, r1
	bl	lua_pushvalue
	.loc 10 42 0
	mov	r0, r4
	ldr	r1, .L116+68
	bl	luaL_ref
	.loc 10 43 0
	str	r6, [r5, #4]
	.loc 10 42 0
	str	r0, [r5]
	.loc 10 44 0
	str	r6, [r5, #8]
	.loc 10 45 0
	b	.L114
.LVL126:
.L95:
	.loc 10 33 0
	ldr	r1, .L116+72
	mov	r0, r4
	.loc 10 34 0
	mov	r5, #0
	.loc 10 33 0
.LPIC59:
	add	r1, pc
	bl	luaL_error
.LVL127:
.L114:
	.loc 10 46 0
	mov	r0, r5
	@ sp needed for prologue
.LVL128:
	pop	{r4, r5, r6, pc}
.L117:
	.align	2
.L116:
	.word	.LC28-(.LPIC42+4)
	.word	.LC29-(.LPIC43+4)
	.word	.LC30-(.LPIC44+4)
	.word	.LC31-(.LPIC45+4)
	.word	.LC32-(.LPIC46+4)
	.word	.LC33-(.LPIC47+4)
	.word	.LC34-(.LPIC48+4)
	.word	.LC35-(.LPIC49+4)
	.word	.LC36-(.LPIC50+4)
	.word	.LC37-(.LPIC51+4)
	.word	.LC38-(.LPIC52+4)
	.word	.LC39-(.LPIC53+4)
	.word	.LC40-(.LPIC54+4)
	.word	.LC41-(.LPIC55+4)
	.word	.LC42-(.LPIC56+4)
	.word	.LC43-(.LPIC57+4)
	.word	.LC44-(.LPIC58+4)
	.word	-1001000
	.word	.LC45-(.LPIC59+4)
	.cfi_endproc
.LFE41:
	.fnend
	.size	luv_setup_handle, .-luv_setup_handle
	.section	.text.luv_thread_sleep,"ax",%progbits
	.align	1
	.code	16
	.thumb_func
	.type	luv_thread_sleep, %function
luv_thread_sleep:
	.fnstart
.LFB255:
	.loc 4 266 0
	.cfi_startproc
	.save	{r3, lr}
	push	{r3, lr}
.LCFI15:
	.cfi_def_cfa_offset 8
	.cfi_offset 3, -8
	.cfi_offset 14, -4
.LVL129:
	.loc 4 271 0
	mov	r1, #1
	bl	luaL_checkinteger
.LVL130:
	.loc 4 272 0
	mov	r3, #250
	lsl	r3, r3, #2
	mul	r0, r3
	bl	usleep
	.loc 4 275 0
	@ sp needed for prologue
	mov	r0, #0
	pop	{r3, pc}
	.cfi_endproc
.LFE255:
	.fnend
	.size	luv_thread_sleep, .-luv_thread_sleep
	.section	.text.luv_thread_join,"ax",%progbits
	.align	1
	.code	16
	.thumb_func
	.type	luv_thread_join, %function
luv_thread_join:
	.fnstart
.LFB252:
	.loc 4 237 0
	.cfi_startproc
	.save	{r4, lr}
	push	{r4, lr}
.LCFI16:
	.cfi_def_cfa_offset 8
	.cfi_offset 4, -8
	.cfi_offset 14, -4
.LVL131:
.LBB154:
.LBB155:
	.loc 4 178 0
	ldr	r2, .L122
	mov	r1, #1
.LBE155:
.LBE154:
	.loc 4 237 0
	mov	r4, r0
.LBB157:
.LBB156:
	.loc 4 178 0
.LPIC60:
	add	r2, pc
	bl	luaL_checkudata
.LVL132:
.LBE156:
.LBE157:
	.loc 4 239 0
	bl	uv_thread_join
.LVL133:
	mov	r1, r0
.LVL134:
	.loc 4 240 0 discriminator 1
	mov	r0, r4
.LVL135:
	.loc 4 240 0 is_stmt 0
	cmp	r1, #0
	bge	.L120
	.loc 4 240 0 discriminator 1
	bl	luv_error
.LVL136:
	b	.L121
.LVL137:
.L120:
	.loc 4 241 0 is_stmt 1
	mov	r1, #1
.LVL138:
	bl	lua_pushboolean
	.loc 4 242 0
	mov	r0, #1
.L121:
	.loc 4 243 0
	@ sp needed for prologue
.LVL139:
	pop	{r4, pc}
.L123:
	.align	2
.L122:
	.word	.LC10-(.LPIC60+4)
	.cfi_endproc
.LFE252:
	.fnend
	.size	luv_thread_join, .-luv_thread_join
	.section	.text.luv_thread_equal,"ax",%progbits
	.align	1
	.code	16
	.thumb_func
	.type	luv_thread_equal, %function
luv_thread_equal:
	.fnstart
.LFB254:
	.loc 4 257 0
	.cfi_startproc
	.save	{r4, r5, r6, lr}
	push	{r4, r5, r6, lr}
.LCFI17:
	.cfi_def_cfa_offset 16
	.cfi_offset 4, -16
	.cfi_offset 5, -12
	.cfi_offset 6, -8
	.cfi_offset 14, -4
.LVL140:
.LBB158:
.LBB159:
	.loc 4 178 0
	ldr	r4, .L125
	mov	r1, #1
.LBE159:
.LBE158:
	.loc 4 257 0
	mov	r5, r0
.LBB162:
.LBB160:
	.loc 4 178 0
.LPIC61:
	add	r4, pc
	mov	r2, r4
	bl	luaL_checkudata
.LVL141:
.LBE160:
.LBE162:
.LBB163:
.LBB164:
	mov	r2, r4
.LBE164:
.LBE163:
.LBB166:
.LBB161:
	mov	r6, r0
.LVL142:
.LBE161:
.LBE166:
.LBB167:
.LBB165:
	mov	r1, #2
	mov	r0, r5
.LVL143:
	bl	luaL_checkudata
	mov	r1, r0
.LVL144:
.LBE165:
.LBE167:
	.loc 4 260 0
	mov	r0, r6
.LVL145:
	bl	uv_thread_equal
.LVL146:
	mov	r1, r0
.LVL147:
	.loc 4 261 0
	mov	r0, r5
.LVL148:
	bl	lua_pushboolean
.LVL149:
	.loc 4 263 0
	@ sp needed for prologue
	mov	r0, #1
.LVL150:
.LVL151:
	pop	{r4, r5, r6, pc}
.L126:
	.align	2
.L125:
	.word	.LC10-(.LPIC61+4)
	.cfi_endproc
.LFE254:
	.fnend
	.size	luv_thread_equal, .-luv_thread_equal
	.section	.text.luv_version_string,"ax",%progbits
	.align	1
	.code	16
	.thumb_func
	.type	luv_version_string, %function
luv_version_string:
	.fnstart
.LFB269:
	.file 11 "jni/luv/luv/misc.c"
	.loc 11 40 0
	.cfi_startproc
	.save	{r4, lr}
	push	{r4, lr}
.LCFI18:
	.cfi_def_cfa_offset 8
	.cfi_offset 4, -8
	.cfi_offset 14, -4
.LVL152:
	.loc 11 40 0
	mov	r4, r0
	.loc 11 41 0
	bl	uv_version_string
.LVL153:
	mov	r1, r0
	mov	r0, r4
	bl	lua_pushstring
	.loc 11 43 0
	@ sp needed for prologue
	mov	r0, #1
.LVL154:
	pop	{r4, pc}
	.cfi_endproc
.LFE269:
	.fnend
	.size	luv_version_string, .-luv_version_string
	.section	.text.luv_version,"ax",%progbits
	.align	1
	.code	16
	.thumb_func
	.type	luv_version, %function
luv_version:
	.fnstart
.LFB268:
	.loc 11 35 0
	.cfi_startproc
	.save	{r4, lr}
	push	{r4, lr}
.LCFI19:
	.cfi_def_cfa_offset 8
	.cfi_offset 4, -8
	.cfi_offset 14, -4
.LVL155:
	.loc 11 35 0
	mov	r4, r0
	.loc 11 36 0
	bl	uv_version
.LVL156:
	mov	r3, #0
	mov	r2, r0
	mov	r0, r4
	bl	lua_pushinteger
	.loc 11 38 0
	@ sp needed for prologue
	mov	r0, #1
.LVL157:
	pop	{r4, pc}
	.cfi_endproc
.LFE268:
	.fnend
	.size	luv_version, .-luv_version
	.section	.text.luv_push_timeval_table,"ax",%progbits
	.align	1
	.code	16
	.thumb_func
	.type	luv_push_timeval_table, %function
luv_push_timeval_table:
	.fnstart
.LFB274:
	.loc 11 77 0
	.cfi_startproc
	.save	{r4, r5, r6, lr}
	push	{r4, r5, r6, lr}
.LCFI20:
	.cfi_def_cfa_offset 16
	.cfi_offset 4, -16
	.cfi_offset 5, -12
	.cfi_offset 6, -8
	.cfi_offset 14, -4
.LVL158:
	.loc 11 77 0
	mov	r4, r1
	.loc 11 78 0
	mov	r2, #2
	mov	r1, #0
.LVL159:
	.loc 11 77 0
	mov	r5, r0
	.loc 11 78 0
	bl	lua_createtable
.LVL160:
	.loc 11 79 0
	ldr	r2, [r4]
	mov	r0, r5
	.loc 11 80 0
	mov	r6, #2
	.loc 11 79 0
	asr	r3, r2, #31
	bl	lua_pushinteger
	.loc 11 80 0
	ldr	r2, .L130
	neg	r6, r6
	mov	r1, r6
	mov	r0, r5
.LPIC63:
	add	r2, pc
	bl	lua_setfield
	.loc 11 81 0
	ldr	r2, [r4, #4]
	mov	r0, r5
	.loc 11 83 0
	@ sp needed for prologue
	.loc 11 81 0
	asr	r3, r2, #31
	bl	lua_pushinteger
	.loc 11 82 0
	ldr	r2, .L130+4
	mov	r0, r5
	mov	r1, r6
.LPIC64:
	add	r2, pc
	bl	lua_setfield
.LVL161:
.LVL162:
	.loc 11 83 0
	pop	{r4, r5, r6, pc}
.L131:
	.align	2
.L130:
	.word	.LC46-(.LPIC63+4)
	.word	.LC47-(.LPIC64+4)
	.cfi_endproc
.LFE274:
	.fnend
	.size	luv_push_timeval_table, .-luv_push_timeval_table
	.section	.text.luv_push_timespec_table,"ax",%progbits
	.align	1
	.code	16
	.thumb_func
	.type	luv_push_timespec_table, %function
luv_push_timespec_table:
	.fnstart
.LFB201:
	.file 12 "jni/luv/luv/fs.c"
	.loc 12 26 0
	.cfi_startproc
	.save	{r4, r5, r6, lr}
	push	{r4, r5, r6, lr}
.LCFI21:
	.cfi_def_cfa_offset 16
	.cfi_offset 4, -16
	.cfi_offset 5, -12
	.cfi_offset 6, -8
	.cfi_offset 14, -4
.LVL163:
	.loc 12 26 0
	mov	r4, r1
	.loc 12 27 0
	mov	r2, #2
	mov	r1, #0
.LVL164:
	.loc 12 26 0
	mov	r5, r0
	.loc 12 27 0
	bl	lua_createtable
.LVL165:
	.loc 12 28 0
	ldr	r2, [r4]
	mov	r0, r5
	.loc 12 29 0
	mov	r6, #2
	.loc 12 28 0
	asr	r3, r2, #31
	bl	lua_pushinteger
	.loc 12 29 0
	ldr	r2, .L133
	neg	r6, r6
	mov	r1, r6
	mov	r0, r5
.LPIC65:
	add	r2, pc
	bl	lua_setfield
	.loc 12 30 0
	ldr	r2, [r4, #4]
	mov	r0, r5
	.loc 12 32 0
	@ sp needed for prologue
	.loc 12 30 0
	asr	r3, r2, #31
	bl	lua_pushinteger
	.loc 12 31 0
	ldr	r2, .L133+4
	mov	r0, r5
	mov	r1, r6
.LPIC66:
	add	r2, pc
	bl	lua_setfield
.LVL166:
.LVL167:
	.loc 12 32 0
	pop	{r4, r5, r6, pc}
.L134:
	.align	2
.L133:
	.word	.LC46-(.LPIC65+4)
	.word	.LC48-(.LPIC66+4)
	.cfi_endproc
.LFE201:
	.fnend
	.size	luv_push_timespec_table, .-luv_push_timespec_table
	.section	.text.luv_push_stats_table,"ax",%progbits
	.align	1
	.code	16
	.thumb_func
	.type	luv_push_stats_table, %function
luv_push_stats_table:
	.fnstart
.LFB202:
	.loc 12 34 0
	.cfi_startproc
	.save	{r3, r4, r5, lr}
	push	{r3, r4, r5, lr}
.LCFI22:
	.cfi_def_cfa_offset 16
	.cfi_offset 3, -16
	.cfi_offset 4, -12
	.cfi_offset 5, -8
	.cfi_offset 14, -4
.LVL168:
	.loc 12 34 0
	mov	r4, r0
	mov	r5, r1
	.loc 12 36 0
	mov	r2, #23
	mov	r1, #0
.LVL169:
	bl	lua_createtable
.LVL170:
	.loc 12 37 0
	ldr	r2, [r5]
	ldr	r3, [r5, #4]
	mov	r0, r4
	bl	lua_pushinteger
	.loc 12 38 0
	ldr	r2, .L162
	mov	r1, #2
	neg	r1, r1
.LPIC74:
	add	r2, pc
	mov	r0, r4
	bl	lua_setfield
	.loc 12 39 0
	ldr	r2, [r5, #8]
	ldr	r3, [r5, #12]
	mov	r0, r4
	bl	lua_pushinteger
	.loc 12 40 0
	ldr	r2, .L162+4
	mov	r1, #2
	neg	r1, r1
.LPIC75:
	add	r2, pc
	mov	r0, r4
	bl	lua_setfield
	.loc 12 41 0
	ldr	r2, [r5, #16]
	ldr	r3, [r5, #20]
	mov	r0, r4
	bl	lua_pushinteger
	.loc 12 42 0
	ldr	r2, .L162+8
	mov	r1, #2
	neg	r1, r1
.LPIC76:
	add	r2, pc
	mov	r0, r4
	bl	lua_setfield
	.loc 12 43 0
	ldr	r2, [r5, #24]
	ldr	r3, [r5, #28]
	mov	r0, r4
	bl	lua_pushinteger
	.loc 12 44 0
	ldr	r2, .L162+12
	mov	r1, #2
	neg	r1, r1
.LPIC77:
	add	r2, pc
	mov	r0, r4
	bl	lua_setfield
	.loc 12 45 0
	ldr	r2, [r5, #32]
	ldr	r3, [r5, #36]
	mov	r0, r4
	bl	lua_pushinteger
	.loc 12 46 0
	ldr	r2, .L162+16
	mov	r1, #2
	neg	r1, r1
.LPIC78:
	add	r2, pc
	mov	r0, r4
	bl	lua_setfield
	.loc 12 47 0
	ldr	r2, [r5, #40]
	ldr	r3, [r5, #44]
	mov	r0, r4
	bl	lua_pushinteger
	.loc 12 48 0
	ldr	r2, .L162+20
	mov	r1, #2
	neg	r1, r1
.LPIC79:
	add	r2, pc
	mov	r0, r4
	bl	lua_setfield
	.loc 12 49 0
	ldr	r2, [r5, #48]
	ldr	r3, [r5, #52]
	mov	r0, r4
	bl	lua_pushinteger
	.loc 12 50 0
	ldr	r2, .L162+24
	mov	r1, #2
	neg	r1, r1
.LPIC80:
	add	r2, pc
	mov	r0, r4
	bl	lua_setfield
	.loc 12 51 0
	ldr	r2, [r5, #56]
	ldr	r3, [r5, #60]
	mov	r0, r4
	bl	lua_pushinteger
	.loc 12 52 0
	ldr	r2, .L162+28
	mov	r1, #2
	neg	r1, r1
.LPIC81:
	add	r2, pc
	mov	r0, r4
	bl	lua_setfield
	.loc 12 53 0
	ldr	r2, [r5, #64]
	ldr	r3, [r5, #68]
	mov	r0, r4
	bl	lua_pushinteger
	.loc 12 54 0
	ldr	r2, .L162+32
	mov	r1, #2
	neg	r1, r1
.LPIC82:
	add	r2, pc
	mov	r0, r4
	bl	lua_setfield
	.loc 12 55 0
	ldr	r2, [r5, #72]
	ldr	r3, [r5, #76]
	mov	r0, r4
	bl	lua_pushinteger
	.loc 12 56 0
	ldr	r2, .L162+36
	mov	r1, #2
	neg	r1, r1
.LPIC83:
	add	r2, pc
	mov	r0, r4
	bl	lua_setfield
	.loc 12 57 0
	ldr	r2, [r5, #80]
	ldr	r3, [r5, #84]
	mov	r0, r4
	bl	lua_pushinteger
	.loc 12 58 0
	ldr	r2, .L162+40
	mov	r1, #2
	neg	r1, r1
.LPIC84:
	add	r2, pc
	mov	r0, r4
	bl	lua_setfield
	.loc 12 59 0
	ldr	r2, [r5, #88]
	ldr	r3, [r5, #92]
	mov	r0, r4
	bl	lua_pushinteger
	.loc 12 60 0
	ldr	r2, .L162+44
	mov	r1, #2
	mov	r0, r4
.LPIC85:
	add	r2, pc
	neg	r1, r1
	bl	lua_setfield
	.loc 12 61 0
	mov	r1, r5
	add	r1, r1, #96
	mov	r0, r4
	bl	luv_push_timespec_table
	.loc 12 62 0
	ldr	r2, .L162+48
	mov	r1, #2
	mov	r0, r4
.LPIC86:
	add	r2, pc
	neg	r1, r1
	bl	lua_setfield
	.loc 12 63 0
	mov	r1, r5
	add	r1, r1, #104
	mov	r0, r4
	bl	luv_push_timespec_table
	.loc 12 64 0
	ldr	r2, .L162+52
	mov	r1, #2
	mov	r0, r4
.LPIC87:
	add	r2, pc
	neg	r1, r1
	bl	lua_setfield
	.loc 12 65 0
	mov	r1, r5
	add	r1, r1, #112
	mov	r0, r4
	bl	luv_push_timespec_table
	.loc 12 66 0
	ldr	r2, .L162+56
	mov	r1, #2
	mov	r0, r4
.LPIC88:
	add	r2, pc
	neg	r1, r1
	bl	lua_setfield
	.loc 12 67 0
	mov	r1, r5
	add	r1, r1, #120
	mov	r0, r4
	bl	luv_push_timespec_table
	.loc 12 68 0
	ldr	r2, .L162+60
	mov	r1, #2
	mov	r0, r4
.LPIC89:
	add	r2, pc
	neg	r1, r1
	bl	lua_setfield
	.loc 12 69 0
	ldr	r2, [r5, #8]
	mov	r3, #240
	lsl	r3, r3, #8
	and	r3, r2
	mov	r2, #128
	lsl	r2, r2, #8
	cmp	r3, r2
	beq	.L156
	.loc 12 72 0
	mov	r2, #128
	lsl	r2, r2, #7
	cmp	r3, r2
	beq	.L157
	.loc 12 75 0
	mov	r2, #160
	lsl	r2, r2, #8
	cmp	r3, r2
	beq	.L158
	.loc 12 78 0
	mov	r2, #128
	lsl	r2, r2, #5
	cmp	r3, r2
	beq	.L159
	.loc 12 82 0
	mov	r2, #192
	lsl	r2, r2, #8
	cmp	r3, r2
	beq	.L160
	.loc 12 86 0
	mov	r2, #128
	lsl	r2, r2, #6
	cmp	r3, r2
	beq	.L161
	.loc 12 89 0
	mov	r2, #192
	lsl	r2, r2, #7
	cmp	r3, r2
	bne	.L135
	.loc 12 90 0
	ldr	r1, .L162+64
.LPIC73:
	add	r1, pc
	b	.L136
.L156:
	.loc 12 70 0
	ldr	r1, .L162+68
.LPIC67:
	add	r1, pc
	b	.L136
.L157:
	.loc 12 73 0
	ldr	r1, .L162+72
.LPIC68:
	add	r1, pc
	b	.L136
.L158:
	.loc 12 76 0
	ldr	r1, .L162+76
.LPIC69:
	add	r1, pc
	b	.L136
.L159:
	.loc 12 79 0
	ldr	r1, .L162+80
.LPIC70:
	add	r1, pc
	b	.L136
.L160:
	.loc 12 83 0
	ldr	r1, .L162+84
.LPIC71:
	add	r1, pc
	b	.L136
.L161:
	.loc 12 87 0
	ldr	r1, .L162+88
.LPIC72:
	add	r1, pc
.L136:
.LVL171:
	.loc 12 93 0
	mov	r0, r4
	bl	lua_pushstring
.LVL172:
	.loc 12 94 0
	ldr	r2, .L162+92
	mov	r1, #2
	mov	r0, r4
.LPIC90:
	add	r2, pc
	neg	r1, r1
	bl	lua_setfield
.L135:
	.loc 12 96 0
	@ sp needed for prologue
.LVL173:
.LVL174:
	pop	{r3, r4, r5, pc}
.L163:
	.align	2
.L162:
	.word	.LC56-(.LPIC74+4)
	.word	.LC57-(.LPIC75+4)
	.word	.LC58-(.LPIC76+4)
	.word	.LC59-(.LPIC77+4)
	.word	.LC60-(.LPIC78+4)
	.word	.LC61-(.LPIC79+4)
	.word	.LC62-(.LPIC80+4)
	.word	.LC63-(.LPIC81+4)
	.word	.LC64-(.LPIC82+4)
	.word	.LC65-(.LPIC83+4)
	.word	.LC66-(.LPIC84+4)
	.word	.LC67-(.LPIC85+4)
	.word	.LC68-(.LPIC86+4)
	.word	.LC69-(.LPIC87+4)
	.word	.LC70-(.LPIC88+4)
	.word	.LC71-(.LPIC89+4)
	.word	.LC55-(.LPIC73+4)
	.word	.LC49-(.LPIC67+4)
	.word	.LC50-(.LPIC68+4)
	.word	.LC51-(.LPIC69+4)
	.word	.LC52-(.LPIC70+4)
	.word	.LC53-(.LPIC71+4)
	.word	.LC54-(.LPIC72+4)
	.word	.LC72-(.LPIC90+4)
	.cfi_endproc
.LFE202:
	.fnend
	.size	luv_push_stats_table, .-luv_push_stats_table
	.section	.text.push_fs_result,"ax",%progbits
	.align	1
	.code	16
	.thumb_func
	.type	push_fs_result, %function
push_fs_result:
	.fnstart
.LFB205:
	.loc 12 166 0
	.cfi_startproc
	.save	{r0, r1, r4, r5, r6, lr}
	push	{r0, r1, r4, r5, r6, lr}
.LCFI23:
	.cfi_def_cfa_offset 24
	.cfi_offset 0, -24
	.cfi_offset 1, -20
	.cfi_offset 4, -16
	.cfi_offset 5, -12
	.cfi_offset 6, -8
	.cfi_offset 14, -4
.LVL175:
	.loc 12 166 0
	mov	r5, r0
	.loc 12 169 0
	ldr	r0, [r1, #32]
.LVL176:
	.loc 12 166 0
	mov	r4, r1
	.loc 12 167 0
	ldr	r3, [r1]
.LVL177:
	ldr	r2, [r1, #44]
	.loc 12 169 0
	cmp	r0, #12
	bne	.L165
	.loc 12 170 0
	mvn	r2, r2
	lsr	r1, r2, #31
.LVL178:
	mov	r0, r5
	b	.L178
.L165:
	.loc 12 174 0
	cmp	r2, #0
	bge	.L167
	.loc 12 175 0
	mov	r0, r5
	bl	lua_pushnil
.LVL179:
	.loc 12 176 0
	ldr	r3, [r4, #52]
	ldr	r0, [r4, #44]
	cmp	r3, #0
	beq	.L168
	.loc 12 177 0
	bl	uv_err_name
	mov	r6, r0
	ldr	r0, [r4, #44]
	bl	uv_strerror
	ldr	r2, [r4, #52]
	ldr	r1, .L182
	mov	r3, r0
	str	r2, [sp]
.LPIC91:
	add	r1, pc
	mov	r0, r5
	mov	r2, r6
	bl	lua_pushfstring
	b	.L180
.L168:
	.loc 12 180 0
	bl	uv_err_name
	mov	r6, r0
	ldr	r0, [r4, #44]
	bl	uv_strerror
	ldr	r1, .L182+4
	mov	r3, r0
	mov	r2, r6
.LPIC92:
	add	r1, pc
	mov	r0, r5
	bl	lua_pushfstring
	b	.L180
.LVL180:
.L167:
	.loc 12 185 0
	sub	r0, r0, #1
	cmp	r0, #26
	bhi	.L169
	bl	__gnu_thumb1_case_uqi
.L177:
	.byte	(.L170-.L177)/2
	.byte	(.L171-.L177)/2
	.byte	(.L172-.L177)/2
	.byte	(.L170-.L177)/2
	.byte	(.L170-.L177)/2
	.byte	(.L173-.L177)/2
	.byte	(.L173-.L177)/2
	.byte	(.L173-.L177)/2
	.byte	(.L171-.L177)/2
	.byte	(.L171-.L177)/2
	.byte	(.L171-.L177)/2
	.byte	(.L169-.L177)/2
	.byte	(.L171-.L177)/2
	.byte	(.L171-.L177)/2
	.byte	(.L171-.L177)/2
	.byte	(.L171-.L177)/2
	.byte	(.L171-.L177)/2
	.byte	(.L171-.L177)/2
	.byte	(.L171-.L177)/2
	.byte	(.L174-.L177)/2
	.byte	(.L171-.L177)/2
	.byte	(.L175-.L177)/2
	.byte	(.L171-.L177)/2
	.byte	(.L171-.L177)/2
	.byte	(.L176-.L177)/2
	.byte	(.L171-.L177)/2
	.byte	(.L171-.L177)/2
	.align	1
.L171:
	.loc 12 202 0
	mov	r0, r5
	mov	r1, #1
.L178:
	bl	lua_pushboolean
.LVL181:
.L179:
	.loc 12 203 0
	mov	r0, #1
	b	.L166
.LVL182:
.L170:
	.loc 12 208 0
	asr	r3, r2, #31
.LVL183:
	mov	r0, r5
	bl	lua_pushinteger
.LVL184:
	b	.L179
.LVL185:
.L173:
	.loc 12 214 0
	add	r1, r1, #56
	mov	r0, r5
	bl	luv_push_stats_table
.LVL186:
	b	.L179
.LVL187:
.L174:
	.loc 12 218 0
	ldr	r1, [r1, #52]
	b	.L181
.L176:
	.loc 12 222 0
	ldr	r1, [r1, #48]
.L181:
	mov	r0, r5
	bl	lua_pushstring
.LVL188:
	b	.L179
.LVL189:
.L172:
	.loc 12 226 0
	ldr	r1, [r3, #12]
	mov	r0, r5
	bl	lua_pushlstring
.LVL190:
	b	.L179
.LVL191:
.L175:
	.loc 12 231 0
	ldr	r2, [r3]
	mov	r0, r5
	ldr	r1, .L182+8
	asr	r3, r2, #31
.LVL192:
	bl	lua_rawgeti
.LVL193:
	b	.L179
.LVL194:
.L169:
	.loc 12 235 0
	mov	r0, r5
	bl	lua_pushnil
.LVL195:
	.loc 12 236 0
	ldr	r1, .L182+12
	ldr	r2, [r4, #32]
	mov	r0, r5
.LPIC93:
	add	r1, pc
	bl	lua_pushfstring
.L180:
	.loc 12 237 0
	mov	r0, #2
.L166:
	.loc 12 240 0
	@ sp needed for prologue
.LVL196:
.LVL197:
	pop	{r1, r2, r4, r5, r6, pc}
.L183:
	.align	2
.L182:
	.word	.LC73-(.LPIC91+4)
	.word	.LC13-(.LPIC92+4)
	.word	-1001000
	.word	.LC74-(.LPIC93+4)
	.cfi_endproc
.LFE205:
	.fnend
	.size	push_fs_result, .-push_fs_result
	.section	.text.luv_uptime,"ax",%progbits
	.align	1
	.code	16
	.thumb_func
	.type	luv_uptime, %function
luv_uptime:
	.fnstart
.LFB273:
	.loc 11 69 0
	.cfi_startproc
	.save	{r0, r1, r4, lr}
	push	{r0, r1, r4, lr}
.LCFI24:
	.cfi_def_cfa_offset 16
	.cfi_offset 0, -16
	.cfi_offset 1, -12
	.cfi_offset 4, -8
	.cfi_offset 14, -4
.LVL198:
	.loc 11 69 0
	mov	r4, r0
	.loc 11 71 0
	mov	r0, sp
.LVL199:
	bl	uv_uptime
	mov	r1, r0
.LVL200:
	.loc 11 72 0 discriminator 1
	mov	r0, r4
.LVL201:
	.loc 11 72 0 is_stmt 0
	cmp	r1, #0
	bge	.L185
	.loc 11 72 0 discriminator 1
	bl	luv_error
.LVL202:
	b	.L186
.LVL203:
.L185:
	.loc 11 73 0 is_stmt 1
	ldr	r2, [sp]
	ldr	r3, [sp, #4]
	bl	lua_pushnumber
.LVL204:
	.loc 11 74 0
	mov	r0, #1
.L186:
	.loc 11 75 0
	@ sp needed for prologue
.LVL205:
	pop	{r1, r2, r4, pc}
	.cfi_endproc
.LFE273:
	.fnend
	.size	luv_uptime, .-luv_uptime
	.section	.text.luv_set_process_title,"ax",%progbits
	.align	1
	.code	16
	.thumb_func
	.type	luv_set_process_title, %function
luv_set_process_title:
	.fnstart
.LFB271:
	.loc 11 53 0
	.cfi_startproc
	.save	{r4, lr}
	push	{r4, lr}
.LCFI25:
	.cfi_def_cfa_offset 8
	.cfi_offset 4, -8
	.cfi_offset 14, -4
.LVL206:
	.loc 11 54 0
	mov	r2, #0
	mov	r1, #1
	.loc 11 53 0
	mov	r4, r0
	.loc 11 54 0
	bl	luaL_checklstring
.LVL207:
	.loc 11 55 0
	bl	uv_set_process_title
.LVL208:
	.loc 11 56 0
	sub	r2, r0, #0
	bge	.L188
	.loc 11 56 0 is_stmt 0 discriminator 1
	mov	r0, r4
	mov	r1, r2
	bl	luv_error
	b	.L189
.L188:
	.loc 11 57 0 is_stmt 1
	mov	r0, r4
	asr	r3, r2, #31
	bl	lua_pushinteger
	.loc 11 58 0
	mov	r0, #1
.L189:
	.loc 11 59 0
	@ sp needed for prologue
.LVL209:
	pop	{r4, pc}
	.cfi_endproc
.LFE271:
	.fnend
	.size	luv_set_process_title, .-luv_set_process_title
	.section	.text.luv_resident_set_memory,"ax",%progbits
	.align	1
	.code	16
	.thumb_func
	.type	luv_resident_set_memory, %function
luv_resident_set_memory:
	.fnstart
.LFB272:
	.loc 11 61 0
	.cfi_startproc
	.save	{r0, r1, r4, lr}
	push	{r0, r1, r4, lr}
.LCFI26:
	.cfi_def_cfa_offset 16
	.cfi_offset 0, -16
	.cfi_offset 1, -12
	.cfi_offset 4, -8
	.cfi_offset 14, -4
.LVL210:
	.loc 11 61 0
	mov	r4, r0
	.loc 11 63 0
	add	r0, sp, #4
.LVL211:
	bl	uv_resident_set_memory
	mov	r1, r0
.LVL212:
	.loc 11 64 0 discriminator 1
	mov	r0, r4
.LVL213:
	.loc 11 64 0 is_stmt 0
	cmp	r1, #0
	bge	.L191
	.loc 11 64 0 discriminator 1
	bl	luv_error
.LVL214:
	b	.L192
.LVL215:
.L191:
	.loc 11 65 0 is_stmt 1
	ldr	r2, [sp, #4]
	mov	r3, #0
	bl	lua_pushinteger
.LVL216:
	.loc 11 66 0
	mov	r0, #1
.L192:
	.loc 11 67 0
	@ sp needed for prologue
.LVL217:
	pop	{r1, r2, r4, pc}
	.cfi_endproc
.LFE272:
	.fnend
	.size	luv_resident_set_memory, .-luv_resident_set_memory
	.section	.text.luv_loadavg,"ax",%progbits
	.align	1
	.code	16
	.thumb_func
	.type	luv_loadavg, %function
luv_loadavg:
	.fnstart
.LFB278:
	.loc 11 216 0
	.cfi_startproc
	.save	{r4, lr}
	push	{r4, lr}
.LCFI27:
	.cfi_def_cfa_offset 8
	.cfi_offset 4, -8
	.cfi_offset 14, -4
.LVL218:
	.pad #24
	sub	sp, sp, #24
.LCFI28:
	.cfi_def_cfa_offset 32
	.loc 11 216 0
	mov	r4, r0
	.loc 11 218 0
	mov	r0, sp
.LVL219:
	bl	uv_loadavg
	.loc 11 219 0
	ldr	r2, [sp]
	ldr	r3, [sp, #4]
	mov	r0, r4
	bl	lua_pushnumber
	.loc 11 220 0
	ldr	r2, [sp, #8]
	ldr	r3, [sp, #12]
	mov	r0, r4
	bl	lua_pushnumber
	.loc 11 221 0
	ldr	r2, [sp, #16]
	ldr	r3, [sp, #20]
	mov	r0, r4
	bl	lua_pushnumber
	.loc 11 223 0
	add	sp, sp, #24
	mov	r0, #3
	@ sp needed for prologue
.LVL220:
	pop	{r4, pc}
	.cfi_endproc
.LFE278:
	.fnend
	.size	luv_loadavg, .-luv_loadavg
	.section	.text.luv_interface_addresses,"ax",%progbits
	.align	1
	.code	16
	.thumb_func
	.type	luv_interface_addresses, %function
luv_interface_addresses:
	.fnstart
.LFB277:
	.loc 11 173 0
	.cfi_startproc
	.save	{r4, r5, r6, r7, lr}
	push	{r4, r5, r6, r7, lr}
.LCFI29:
	.cfi_def_cfa_offset 20
	.cfi_offset 4, -20
	.cfi_offset 5, -16
	.cfi_offset 6, -12
	.cfi_offset 7, -8
	.cfi_offset 14, -4
.LVL221:
	ldr	r5, .L202
	.pad #68
	sub	sp, sp, #68
.LCFI30:
	.cfi_def_cfa_offset 88
	.loc 11 173 0
	mov	r4, r0
.LPIC100:
	add	r5, pc
	ldr	r5, [r5]
	.loc 11 178 0
	add	r1, sp, #8
	add	r0, sp, #4
.LVL222:
	.loc 11 173 0
	ldr	r3, [r5]
	.loc 11 182 0
	mov	r6, #0
	mov	r7, r5
	.loc 11 173 0
	str	r3, [sp, #60]
	.loc 11 178 0
	bl	uv_interface_addresses
	.loc 11 180 0
	mov	r1, #0
	mov	r0, r4
	mov	r2, r1
	bl	lua_createtable
.LVL223:
	.loc 11 182 0
	b	.L195
.LVL224:
.L200:
	.loc 11 173 0
	mov	r5, #72
	mul	r5, r6
	.loc 11 184 0
	mov	r1, #1
	ldr	r2, [r0, r5]
	neg	r1, r1
	mov	r0, r4
	bl	lua_getfield
	.loc 11 185 0
	mov	r1, #1
	mov	r0, r4
	neg	r1, r1
	bl	lua_type
	cmp	r0, #5
	beq	.L196
	.loc 11 186 0
	mov	r1, #2
	mov	r0, r4
	neg	r1, r1
	bl	lua_settop
	.loc 11 187 0
	mov	r1, #0
	mov	r2, r1
	mov	r0, r4
	bl	lua_createtable
	.loc 11 188 0
	mov	r1, #1
	mov	r0, r4
	neg	r1, r1
	bl	lua_pushvalue
	.loc 11 189 0
	ldr	r3, [sp, #4]
	mov	r1, #3
	mov	r0, r4
	ldr	r2, [r3, r5]
	neg	r1, r1
	bl	lua_setfield
.L196:
	.loc 11 191 0
	mov	r1, #0
	mov	r2, r1
	mov	r0, r4
	bl	lua_createtable
	.loc 11 192 0
	ldr	r3, [sp, #4]
	mov	r0, r4
	add	r3, r3, r5
	ldr	r1, [r3, #12]
	bl	lua_pushboolean
	.loc 11 193 0
	ldr	r2, .L202+4
	mov	r1, #2
	mov	r0, r4
.LPIC95:
	add	r2, pc
	neg	r1, r1
	bl	lua_setfield
	.loc 11 195 0
	ldr	r1, [sp, #4]
	mov	r2, #6
	mov	r0, r4
	add	r1, r1, r5
	add	r1, r1, #4
	bl	lua_pushlstring
	.loc 11 196 0
	ldr	r2, .L202+8
	mov	r1, #2
	mov	r0, r4
.LPIC96:
	add	r2, pc
	neg	r1, r1
	bl	lua_setfield
	.loc 11 198 0
	ldr	r0, [sp, #4]
	add	r0, r0, r5
	ldrh	r3, [r0, #16]
	cmp	r3, #2
	bne	.L197
	.loc 11 199 0
	add	r1, sp, #12
	mov	r2, #46
	add	r0, r0, #16
	bl	uv_ip4_name
	b	.L198
.L197:
	.loc 11 200 0
	cmp	r3, #10
	bne	.L199
	.loc 11 201 0
	add	r1, sp, #12
	mov	r2, #46
	add	r0, r0, #16
	bl	uv_ip6_name
	b	.L198
.L199:
	.loc 11 203 0
	ldr	r1, .L202+12
	add	r0, sp, #12
	mov	r2, #46
.LPIC97:
	add	r1, pc
	bl	strncpy
.L198:
	.loc 11 205 0
	add	r1, sp, #12
	mov	r0, r4
	bl	lua_pushstring
	.loc 11 206 0
	ldr	r2, .L202+16
	mov	r1, #2
	neg	r1, r1
.LPIC98:
	add	r2, pc
	mov	r0, r4
	bl	lua_setfield
	.loc 11 207 0
	ldr	r3, [sp, #4]
	.loc 11 182 0
	add	r6, r6, #1
.LVL225:
	.loc 11 207 0
	add	r5, r3, r5
	ldrh	r0, [r5, #16]
	bl	luv_af_num_to_string
	mov	r1, r0
	mov	r0, r4
	bl	lua_pushstring
	.loc 11 208 0
	ldr	r2, .L202+20
	mov	r1, #2
	mov	r0, r4
.LPIC99:
	add	r2, pc
	neg	r1, r1
	bl	lua_setfield
	.loc 11 209 0
	mov	r1, #2
	neg	r1, r1
	mov	r0, r4
	bl	lua_rawlen
	mov	r1, #2
	add	r2, r0, #1
	neg	r1, r1
	mov	r0, r4
	mov	r3, #0
	bl	lua_rawseti
	.loc 11 210 0
	mov	r1, #2
	mov	r0, r4
	neg	r1, r1
	bl	lua_settop
.LVL226:
.L195:
	.loc 11 182 0 discriminator 1
	ldr	r1, [sp, #8]
	ldr	r0, [sp, #4]
	cmp	r6, r1
	bge	.LCB2336
	b	.L200	@long jump
.LCB2336:
	.loc 11 212 0
	bl	uv_free_interface_addresses
	.loc 11 214 0
	ldr	r2, [sp, #60]
	ldr	r3, [r7]
	mov	r0, #1
	cmp	r2, r3
	beq	.L201
	bl	__stack_chk_fail
.L201:
	add	sp, sp, #68
	@ sp needed for prologue
.LVL227:
.LVL228:
	pop	{r4, r5, r6, r7, pc}
.L203:
	.align	2
.L202:
	.word	__stack_chk_guard(GOT_PREL)+(.-(.LPIC100+4))
	.word	.LC75-(.LPIC95+4)
	.word	.LC76-(.LPIC96+4)
	.word	.LC77-(.LPIC97+4)
	.word	.LC78-(.LPIC98+4)
	.word	.LC79-(.LPIC99+4)
	.cfi_endproc
.LFE277:
	.fnend
	.size	luv_interface_addresses, .-luv_interface_addresses
	.global	__aeabi_ul2d
	.section	.text.luv_hrtime,"ax",%progbits
	.align	1
	.code	16
	.thumb_func
	.type	luv_hrtime, %function
luv_hrtime:
	.fnstart
.LFB285:
	.loc 11 269 0
	.cfi_startproc
	.save	{r4, lr}
	push	{r4, lr}
.LCFI31:
	.cfi_def_cfa_offset 8
	.cfi_offset 4, -8
	.cfi_offset 14, -4
.LVL229:
	.loc 11 269 0
	mov	r4, r0
	.loc 11 270 0
	bl	uv_hrtime
.LVL230:
	bl	__aeabi_ul2d
	mov	r2, r0
	mov	r3, r1
	mov	r0, r4
	bl	lua_pushnumber
	.loc 11 272 0
	@ sp needed for prologue
	mov	r0, #1
.LVL231:
	pop	{r4, pc}
	.cfi_endproc
.LFE285:
	.fnend
	.size	luv_hrtime, .-luv_hrtime
	.section	.text.luv_guess_handle,"ax",%progbits
	.align	1
	.code	16
	.thumb_func
	.type	luv_guess_handle, %function
luv_guess_handle:
	.fnstart
.LFB267:
	.loc 11 23 0
	.cfi_startproc
	.save	{r4, lr}
	push	{r4, lr}
.LCFI32:
	.cfi_def_cfa_offset 8
	.cfi_offset 4, -8
	.cfi_offset 14, -4
.LVL232:
	.loc 11 24 0
	mov	r1, #1
	.loc 11 23 0
	mov	r4, r0
	.loc 11 24 0
	bl	luaL_checkinteger
.LVL233:
	.loc 11 25 0
	bl	uv_guess_handle
.LVL234:
	sub	r0, r0, #1
	.loc 11 30 0
	mov	r3, #0
	.loc 11 25 0
	cmp	r0, #16
	bhi	.L206
	bl	__gnu_thumb1_case_uqi
.L224:
	.byte	(.L207-.L224)/2
	.byte	(.L208-.L224)/2
	.byte	(.L209-.L224)/2
	.byte	(.L210-.L224)/2
	.byte	(.L211-.L224)/2
	.byte	(.L212-.L224)/2
	.byte	(.L213-.L224)/2
	.byte	(.L214-.L224)/2
	.byte	(.L215-.L224)/2
	.byte	(.L216-.L224)/2
	.byte	(.L217-.L224)/2
	.byte	(.L218-.L224)/2
	.byte	(.L219-.L224)/2
	.byte	(.L220-.L224)/2
	.byte	(.L221-.L224)/2
	.byte	(.L222-.L224)/2
	.byte	(.L223-.L224)/2
	.align	1
.L207:
	.loc 11 27 0
	ldr	r1, .L227
.LPIC101:
	add	r1, pc
	b	.L226
.L208:
	ldr	r1, .L227+4
.LPIC102:
	add	r1, pc
	b	.L226
.L209:
	ldr	r1, .L227+8
.LPIC103:
	add	r1, pc
	b	.L226
.L210:
	ldr	r1, .L227+12
.LPIC104:
	add	r1, pc
	b	.L226
.L211:
	ldr	r1, .L227+16
.LPIC105:
	add	r1, pc
	b	.L226
.L212:
	ldr	r1, .L227+20
.LPIC106:
	add	r1, pc
	b	.L226
.L213:
	ldr	r1, .L227+24
.LPIC107:
	add	r1, pc
	b	.L226
.L214:
	ldr	r1, .L227+28
.LPIC108:
	add	r1, pc
	b	.L226
.L215:
	ldr	r1, .L227+32
.LPIC109:
	add	r1, pc
	b	.L226
.L216:
	ldr	r1, .L227+36
.LPIC110:
	add	r1, pc
	b	.L226
.L217:
	ldr	r1, .L227+40
.LPIC111:
	add	r1, pc
	b	.L226
.L218:
	ldr	r1, .L227+44
.LPIC112:
	add	r1, pc
	b	.L226
.L219:
	ldr	r1, .L227+48
.LPIC113:
	add	r1, pc
	b	.L226
.L220:
	ldr	r1, .L227+52
.LPIC114:
	add	r1, pc
	b	.L226
.L221:
	ldr	r1, .L227+56
.LPIC115:
	add	r1, pc
	b	.L226
.L222:
	ldr	r1, .L227+60
.LPIC116:
	add	r1, pc
	b	.L226
.L223:
	.loc 11 29 0
	ldr	r1, .L227+64
.LPIC117:
	add	r1, pc
.L226:
	mov	r0, r4
	bl	lua_pushstring
	.loc 11 32 0
	mov	r3, #1
.L206:
	.loc 11 33 0
	mov	r0, r3
	@ sp needed for prologue
.LVL235:
	pop	{r4, pc}
.L228:
	.align	2
.L227:
	.word	.LC80-(.LPIC101+4)
	.word	.LC81-(.LPIC102+4)
	.word	.LC82-(.LPIC103+4)
	.word	.LC83-(.LPIC104+4)
	.word	.LC84-(.LPIC105+4)
	.word	.LC85-(.LPIC106+4)
	.word	.LC86-(.LPIC107+4)
	.word	.LC87-(.LPIC108+4)
	.word	.LC88-(.LPIC109+4)
	.word	.LC89-(.LPIC110+4)
	.word	.LC90-(.LPIC111+4)
	.word	.LC91-(.LPIC112+4)
	.word	.LC92-(.LPIC113+4)
	.word	.LC93-(.LPIC114+4)
	.word	.LC94-(.LPIC115+4)
	.word	.LC95-(.LPIC116+4)
	.word	.LC49-(.LPIC117+4)
	.cfi_endproc
.LFE267:
	.fnend
	.size	luv_guess_handle, .-luv_guess_handle
	.section	.text.luv_getrusage,"ax",%progbits
	.align	1
	.code	16
	.thumb_func
	.type	luv_getrusage, %function
luv_getrusage:
	.fnstart
.LFB275:
	.loc 11 85 0
	.cfi_startproc
	.save	{r4, lr}
	push	{r4, lr}
.LCFI33:
	.cfi_def_cfa_offset 8
	.cfi_offset 4, -8
	.cfi_offset 14, -4
.LVL236:
	.pad #128
	sub	sp, sp, #128
.LCFI34:
	.cfi_def_cfa_offset 136
	.loc 11 85 0
	mov	r4, r0
	.loc 11 87 0
	mov	r0, sp
.LVL237:
	bl	uv_getrusage
	mov	r1, r0
.LVL238:
	.loc 11 88 0 discriminator 1
	mov	r0, r4
.LVL239:
	.loc 11 88 0 is_stmt 0
	cmp	r1, #0
	bge	.L230
	.loc 11 88 0 discriminator 1
	bl	luv_error
.LVL240:
	b	.L231
.LVL241:
.L230:
	.loc 11 89 0 is_stmt 1
	mov	r2, #16
	mov	r1, #0
.LVL242:
	bl	lua_createtable
	.loc 11 91 0
	mov	r0, r4
	mov	r1, sp
	bl	luv_push_timeval_table
	.loc 11 92 0
	ldr	r2, .L232
	mov	r1, #2
	mov	r0, r4
.LPIC118:
	add	r2, pc
	neg	r1, r1
	bl	lua_setfield
	.loc 11 94 0
	mov	r0, r4
	add	r1, sp, #8
	bl	luv_push_timeval_table
	.loc 11 95 0
	ldr	r2, .L232+4
	mov	r1, #2
	neg	r1, r1
.LPIC119:
	add	r2, pc
	mov	r0, r4
	bl	lua_setfield
	.loc 11 97 0
	ldr	r2, [sp, #16]
	ldr	r3, [sp, #20]
	mov	r0, r4
	bl	lua_pushinteger
	.loc 11 98 0
	ldr	r2, .L232+8
	mov	r1, #2
	neg	r1, r1
.LPIC120:
	add	r2, pc
	mov	r0, r4
	bl	lua_setfield
	.loc 11 100 0
	ldr	r2, [sp, #24]
	ldr	r3, [sp, #28]
	mov	r0, r4
	bl	lua_pushinteger
	.loc 11 101 0
	ldr	r2, .L232+12
	mov	r1, #2
	neg	r1, r1
.LPIC121:
	add	r2, pc
	mov	r0, r4
	bl	lua_setfield
	.loc 11 103 0
	ldr	r2, [sp, #32]
	ldr	r3, [sp, #36]
	mov	r0, r4
	bl	lua_pushinteger
	.loc 11 104 0
	ldr	r2, .L232+16
	mov	r1, #2
	neg	r1, r1
.LPIC122:
	add	r2, pc
	mov	r0, r4
	bl	lua_setfield
	.loc 11 106 0
	ldr	r2, [sp, #40]
	ldr	r3, [sp, #44]
	mov	r0, r4
	bl	lua_pushinteger
	.loc 11 107 0
	ldr	r2, .L232+20
	mov	r1, #2
	neg	r1, r1
.LPIC123:
	add	r2, pc
	mov	r0, r4
	bl	lua_setfield
	.loc 11 109 0
	ldr	r2, [sp, #48]
	ldr	r3, [sp, #52]
	mov	r0, r4
	bl	lua_pushinteger
	.loc 11 110 0
	ldr	r2, .L232+24
	mov	r1, #2
	neg	r1, r1
.LPIC124:
	add	r2, pc
	mov	r0, r4
	bl	lua_setfield
	.loc 11 112 0
	ldr	r2, [sp, #56]
	ldr	r3, [sp, #60]
	mov	r0, r4
	bl	lua_pushinteger
	.loc 11 113 0
	ldr	r2, .L232+28
	mov	r1, #2
	neg	r1, r1
.LPIC125:
	add	r2, pc
	mov	r0, r4
	bl	lua_setfield
	.loc 11 115 0
	ldr	r2, [sp, #64]
	ldr	r3, [sp, #68]
	mov	r0, r4
	bl	lua_pushinteger
	.loc 11 116 0
	ldr	r2, .L232+32
	mov	r1, #2
	neg	r1, r1
.LPIC126:
	add	r2, pc
	mov	r0, r4
	bl	lua_setfield
	.loc 11 118 0
	ldr	r2, [sp, #72]
	ldr	r3, [sp, #76]
	mov	r0, r4
	bl	lua_pushinteger
	.loc 11 119 0
	ldr	r2, .L232+36
	mov	r1, #2
	neg	r1, r1
.LPIC127:
	add	r2, pc
	mov	r0, r4
	bl	lua_setfield
	.loc 11 121 0
	ldr	r2, [sp, #80]
	ldr	r3, [sp, #84]
	mov	r0, r4
	bl	lua_pushinteger
	.loc 11 122 0
	ldr	r2, .L232+40
	mov	r1, #2
	neg	r1, r1
.LPIC128:
	add	r2, pc
	mov	r0, r4
	bl	lua_setfield
	.loc 11 124 0
	ldr	r2, [sp, #88]
	ldr	r3, [sp, #92]
	mov	r0, r4
	bl	lua_pushinteger
	.loc 11 125 0
	ldr	r2, .L232+44
	mov	r1, #2
	neg	r1, r1
.LPIC129:
	add	r2, pc
	mov	r0, r4
	bl	lua_setfield
	.loc 11 127 0
	ldr	r2, [sp, #96]
	ldr	r3, [sp, #100]
	mov	r0, r4
	bl	lua_pushinteger
	.loc 11 128 0
	ldr	r2, .L232+48
	mov	r1, #2
	neg	r1, r1
.LPIC130:
	add	r2, pc
	mov	r0, r4
	bl	lua_setfield
	.loc 11 130 0
	ldr	r2, [sp, #104]
	ldr	r3, [sp, #108]
	mov	r0, r4
	bl	lua_pushinteger
	.loc 11 131 0
	ldr	r2, .L232+52
	mov	r1, #2
	neg	r1, r1
.LPIC131:
	add	r2, pc
	mov	r0, r4
	bl	lua_setfield
	.loc 11 133 0
	ldr	r2, [sp, #112]
	ldr	r3, [sp, #116]
	mov	r0, r4
	bl	lua_pushinteger
	.loc 11 134 0
	ldr	r2, .L232+56
	mov	r1, #2
	neg	r1, r1
.LPIC132:
	add	r2, pc
	mov	r0, r4
	bl	lua_setfield
	.loc 11 136 0
	ldr	r2, [sp, #120]
	ldr	r3, [sp, #124]
	mov	r0, r4
	bl	lua_pushinteger
	.loc 11 137 0
	ldr	r2, .L232+60
	mov	r1, #2
	mov	r0, r4
.LPIC133:
	add	r2, pc
	neg	r1, r1
	bl	lua_setfield
	.loc 11 138 0
	mov	r0, #1
.L231:
	.loc 11 139 0
	add	sp, sp, #128
	@ sp needed for prologue
.LVL243:
	pop	{r4, pc}
.L233:
	.align	2
.L232:
	.word	.LC96-(.LPIC118+4)
	.word	.LC97-(.LPIC119+4)
	.word	.LC98-(.LPIC120+4)
	.word	.LC99-(.LPIC121+4)
	.word	.LC100-(.LPIC122+4)
	.word	.LC101-(.LPIC123+4)
	.word	.LC102-(.LPIC124+4)
	.word	.LC103-(.LPIC125+4)
	.word	.LC104-(.LPIC126+4)
	.word	.LC105-(.LPIC127+4)
	.word	.LC106-(.LPIC128+4)
	.word	.LC107-(.LPIC129+4)
	.word	.LC108-(.LPIC130+4)
	.word	.LC109-(.LPIC131+4)
	.word	.LC110-(.LPIC132+4)
	.word	.LC111-(.LPIC133+4)
	.cfi_endproc
.LFE275:
	.fnend
	.size	luv_getrusage, .-luv_getrusage
	.section	.text.luv_getgid,"ax",%progbits
	.align	1
	.code	16
	.thumb_func
	.type	luv_getgid, %function
luv_getgid:
	.fnstart
.LFB288:
	.loc 11 287 0
	.cfi_startproc
	.save	{r4, lr}
	push	{r4, lr}
.LCFI35:
	.cfi_def_cfa_offset 8
	.cfi_offset 4, -8
	.cfi_offset 14, -4
.LVL244:
	.loc 11 287 0
	mov	r4, r0
	.loc 11 288 0
	bl	getgid
.LVL245:
	mov	r2, r0
.LVL246:
	.loc 11 289 0
	asr	r3, r0, #31
	mov	r0, r4
.LVL247:
	bl	lua_pushinteger
.LVL248:
	.loc 11 291 0
	@ sp needed for prologue
	mov	r0, #1
.LVL249:
	pop	{r4, pc}
	.cfi_endproc
.LFE288:
	.fnend
	.size	luv_getgid, .-luv_getgid
	.section	.text.luv_getuid,"ax",%progbits
	.align	1
	.code	16
	.thumb_func
	.type	luv_getuid, %function
luv_getuid:
	.fnstart
.LFB287:
	.loc 11 281 0
	.cfi_startproc
	.save	{r4, lr}
	push	{r4, lr}
.LCFI36:
	.cfi_def_cfa_offset 8
	.cfi_offset 4, -8
	.cfi_offset 14, -4
.LVL250:
	.loc 11 281 0
	mov	r4, r0
	.loc 11 282 0
	bl	getuid
.LVL251:
	mov	r2, r0
.LVL252:
	.loc 11 283 0
	asr	r3, r0, #31
	mov	r0, r4
.LVL253:
	bl	lua_pushinteger
.LVL254:
	.loc 11 285 0
	@ sp needed for prologue
	mov	r0, #1
.LVL255:
	pop	{r4, pc}
	.cfi_endproc
.LFE287:
	.fnend
	.size	luv_getuid, .-luv_getuid
	.section	.text.luv_getpid,"ax",%progbits
	.align	1
	.code	16
	.thumb_func
	.type	luv_getpid, %function
luv_getpid:
	.fnstart
.LFB286:
	.loc 11 274 0
	.cfi_startproc
	.save	{r4, lr}
	push	{r4, lr}
.LCFI37:
	.cfi_def_cfa_offset 8
	.cfi_offset 4, -8
	.cfi_offset 14, -4
.LVL256:
	.loc 11 274 0
	mov	r4, r0
	.loc 11 275 0
	bl	getpid
.LVL257:
	mov	r2, r0
.LVL258:
	.loc 11 276 0
	asr	r3, r0, #31
	mov	r0, r4
.LVL259:
	bl	lua_pushinteger
.LVL260:
	.loc 11 278 0
	@ sp needed for prologue
	mov	r0, #1
.LVL261:
	pop	{r4, pc}
	.cfi_endproc
.LFE286:
	.fnend
	.size	luv_getpid, .-luv_getpid
	.section	.text.luv_get_free_memory,"ax",%progbits
	.align	1
	.code	16
	.thumb_func
	.type	luv_get_free_memory, %function
luv_get_free_memory:
	.fnstart
.LFB284:
	.loc 11 264 0
	.cfi_startproc
	.save	{r4, lr}
	push	{r4, lr}
.LCFI38:
	.cfi_def_cfa_offset 8
	.cfi_offset 4, -8
	.cfi_offset 14, -4
.LVL262:
	.loc 11 264 0
	mov	r4, r0
	.loc 11 265 0
	bl	uv_get_free_memory
.LVL263:
	bl	__aeabi_ul2d
	mov	r2, r0
	mov	r3, r1
	mov	r0, r4
	bl	lua_pushnumber
	.loc 11 267 0
	@ sp needed for prologue
	mov	r0, #1
.LVL264:
	pop	{r4, pc}
	.cfi_endproc
.LFE284:
	.fnend
	.size	luv_get_free_memory, .-luv_get_free_memory
	.section	.text.luv_get_total_memory,"ax",%progbits
	.align	1
	.code	16
	.thumb_func
	.type	luv_get_total_memory, %function
luv_get_total_memory:
	.fnstart
.LFB283:
	.loc 11 259 0
	.cfi_startproc
	.save	{r4, lr}
	push	{r4, lr}
.LCFI39:
	.cfi_def_cfa_offset 8
	.cfi_offset 4, -8
	.cfi_offset 14, -4
.LVL265:
	.loc 11 259 0
	mov	r4, r0
	.loc 11 260 0
	bl	uv_get_total_memory
.LVL266:
	bl	__aeabi_ul2d
	mov	r2, r0
	mov	r3, r1
	mov	r0, r4
	bl	lua_pushnumber
	.loc 11 262 0
	@ sp needed for prologue
	mov	r0, #1
.LVL267:
	pop	{r4, pc}
	.cfi_endproc
.LFE283:
	.fnend
	.size	luv_get_total_memory, .-luv_get_total_memory
	.section	.text.luv_get_process_title,"ax",%progbits
	.align	1
	.code	16
	.thumb_func
	.type	luv_get_process_title, %function
luv_get_process_title:
	.fnstart
.LFB270:
	.loc 11 45 0
	.cfi_startproc
	.save	{r4, r5, lr}
	push	{r4, r5, lr}
.LCFI40:
	.cfi_def_cfa_offset 12
	.cfi_offset 4, -12
	.cfi_offset 5, -8
	.cfi_offset 14, -4
.LVL268:
	ldr	r4, .L243
	ldr	r2, .L243+4
	.loc 11 47 0
	mov	r1, #128
	.loc 11 45 0
	.pad #8204
	add	sp, sp, r4
.LCFI41:
	.cfi_def_cfa_offset 8216
	.loc 11 45 0
	ldr	r4, .L243+8
	add	r2, r2, sp
	mov	r5, r0
.LPIC135:
	add	r4, pc
	ldr	r4, [r4]
	.loc 11 47 0
	lsl	r1, r1, #6
	add	r0, sp, #4
.LVL269:
	.loc 11 45 0
	ldr	r3, [r4]
	str	r3, [r2]
	.loc 11 47 0
	bl	uv_get_process_title
	mov	r1, r0
.LVL270:
	.loc 11 48 0 discriminator 1
	mov	r0, r5
.LVL271:
	.loc 11 48 0 is_stmt 0
	cmp	r1, #0
	bge	.L240
	.loc 11 48 0 discriminator 1
	bl	luv_error
.LVL272:
	b	.L241
.LVL273:
.L240:
	.loc 11 49 0 is_stmt 1
	add	r1, sp, #4
.LVL274:
	bl	lua_pushstring
	.loc 11 50 0
	mov	r0, #1
.L241:
	.loc 11 51 0
	ldr	r3, .L243+4
	add	r3, r3, sp
	ldr	r2, [r3]
	ldr	r3, [r4]
	cmp	r2, r3
	beq	.L242
	bl	__stack_chk_fail
.L242:
	ldr	r3, .L243+12
	add	sp, sp, r3
	@ sp needed for prologue
.LVL275:
	pop	{r4, r5, pc}
.L244:
	.align	2
.L243:
	.word	-8204
	.word	8196
	.word	__stack_chk_guard(GOT_PREL)+(.-(.LPIC135+4))
	.word	8204
	.cfi_endproc
.LFE270:
	.fnend
	.size	luv_get_process_title, .-luv_get_process_title
	.section	.text.luv_exepath,"ax",%progbits
	.align	1
	.code	16
	.thumb_func
	.type	luv_exepath, %function
luv_exepath:
	.fnstart
.LFB279:
	.loc 11 225 0
	.cfi_startproc
	.save	{r4, r5, lr}
	push	{r4, r5, lr}
.LCFI42:
	.cfi_def_cfa_offset 12
	.cfi_offset 4, -12
	.cfi_offset 5, -8
	.cfi_offset 14, -4
.LVL276:
	ldr	r4, .L249
	ldr	r2, .L249+4
	mov	r5, r0
	.pad #8204
	add	sp, sp, r4
.LCFI43:
	.cfi_def_cfa_offset 8216
	.loc 11 225 0
	ldr	r4, .L249+8
	add	r2, r2, sp
	.loc 11 228 0
	mov	r1, sp
	.loc 11 225 0
.LPIC137:
	add	r4, pc
	ldr	r4, [r4]
	.loc 11 228 0
	add	r0, sp, #4
.LVL277:
	.loc 11 225 0
	ldr	r3, [r4]
	str	r3, [r2]
	.loc 11 226 0
	mov	r3, #128
	lsl	r3, r3, #6
	str	r3, [sp]
.LVL278:
	.loc 11 228 0
	bl	uv_exepath
	mov	r1, r0
.LVL279:
	.loc 11 229 0 discriminator 1
	mov	r0, r5
.LVL280:
	.loc 11 229 0 is_stmt 0
	cmp	r1, #0
	bge	.L246
	.loc 11 229 0 discriminator 1
	bl	luv_error
.LVL281:
	b	.L247
.LVL282:
.L246:
	.loc 11 230 0 is_stmt 1
	add	r1, sp, #4
.LVL283:
	ldr	r2, [sp]
	bl	lua_pushlstring
	.loc 11 231 0
	mov	r0, #1
.L247:
	.loc 11 232 0
	ldr	r3, .L249+4
	add	r3, r3, sp
	ldr	r2, [r3]
	ldr	r3, [r4]
	cmp	r2, r3
	beq	.L248
	bl	__stack_chk_fail
.L248:
	ldr	r3, .L249+12
	add	sp, sp, r3
	@ sp needed for prologue
.LVL284:
	pop	{r4, r5, pc}
.L250:
	.align	2
.L249:
	.word	-8204
	.word	8196
	.word	__stack_chk_guard(GOT_PREL)+(.-(.LPIC137+4))
	.word	8204
	.cfi_endproc
.LFE279:
	.fnend
	.size	luv_exepath, .-luv_exepath
	.section	.text.luv_cwd,"ax",%progbits
	.align	1
	.code	16
	.thumb_func
	.type	luv_cwd, %function
luv_cwd:
	.fnstart
.LFB280:
	.loc 11 234 0
	.cfi_startproc
	.save	{r4, r5, lr}
	push	{r4, r5, lr}
.LCFI44:
	.cfi_def_cfa_offset 12
	.cfi_offset 4, -12
	.cfi_offset 5, -8
	.cfi_offset 14, -4
.LVL285:
	ldr	r4, .L255
	ldr	r2, .L255+4
	mov	r5, r0
	.pad #8204
	add	sp, sp, r4
.LCFI45:
	.cfi_def_cfa_offset 8216
	.loc 11 234 0
	ldr	r4, .L255+8
	add	r2, r2, sp
	.loc 11 237 0
	mov	r1, sp
	.loc 11 234 0
.LPIC139:
	add	r4, pc
	ldr	r4, [r4]
	.loc 11 237 0
	add	r0, sp, #4
.LVL286:
	.loc 11 234 0
	ldr	r3, [r4]
	str	r3, [r2]
	.loc 11 235 0
	mov	r3, #128
	lsl	r3, r3, #6
	str	r3, [sp]
.LVL287:
	.loc 11 237 0
	bl	uv_cwd
	mov	r1, r0
.LVL288:
	.loc 11 238 0 discriminator 1
	mov	r0, r5
.LVL289:
	.loc 11 238 0 is_stmt 0
	cmp	r1, #0
	bge	.L252
	.loc 11 238 0 discriminator 1
	bl	luv_error
.LVL290:
	b	.L253
.LVL291:
.L252:
	.loc 11 239 0 is_stmt 1
	add	r1, sp, #4
.LVL292:
	ldr	r2, [sp]
	bl	lua_pushlstring
	.loc 11 240 0
	mov	r0, #1
.L253:
	.loc 11 241 0
	ldr	r3, .L255+4
	add	r3, r3, sp
	ldr	r2, [r3]
	ldr	r3, [r4]
	cmp	r2, r3
	beq	.L254
	bl	__stack_chk_fail
.L254:
	ldr	r3, .L255+12
	add	sp, sp, r3
	@ sp needed for prologue
.LVL293:
	pop	{r4, r5, pc}
.L256:
	.align	2
.L255:
	.word	-8204
	.word	8196
	.word	__stack_chk_guard(GOT_PREL)+(.-(.LPIC139+4))
	.word	8204
	.cfi_endproc
.LFE280:
	.fnend
	.size	luv_cwd, .-luv_cwd
	.global	__aeabi_i2d
	.section	.text.luv_cpu_info,"ax",%progbits
	.align	1
	.code	16
	.thumb_func
	.type	luv_cpu_info, %function
luv_cpu_info:
	.fnstart
.LFB276:
	.loc 11 141 0
	.cfi_startproc
	.save	{r0, r1, r2, r4, r5, r6, r7, lr}
	push	{r0, r1, r2, r4, r5, r6, r7, lr}
.LCFI46:
	.cfi_def_cfa_offset 32
	.cfi_offset 0, -32
	.cfi_offset 1, -28
	.cfi_offset 2, -24
	.cfi_offset 4, -20
	.cfi_offset 5, -16
	.cfi_offset 6, -12
	.cfi_offset 7, -8
	.cfi_offset 14, -4
.LVL294:
	.loc 11 141 0
	mov	r4, r0
	.loc 11 144 0
	add	r1, sp, #4
	mov	r0, sp
.LVL295:
	bl	uv_cpu_info
	mov	r1, r0
.LVL296:
	.loc 11 145 0 discriminator 1
	mov	r0, r4
.LVL297:
	.loc 11 145 0 is_stmt 0
	cmp	r1, #0
	bge	.L258
	.loc 11 145 0 discriminator 1
	bl	luv_error
.LVL298:
	b	.L259
.LVL299:
.L258:
	.loc 11 146 0 is_stmt 1
	mov	r1, #0
.LVL300:
	mov	r2, r1
	bl	lua_createtable
.LVL301:
	.loc 11 148 0
	mov	r6, #0
	mov	r7, #0
	mov	r5, #0
	b	.L260
.LVL302:
.L261:
	.loc 11 149 0
	mov	r1, #0
	mov	r2, r1
	mov	r0, r4
.LVL303:
	bl	lua_createtable
	.loc 11 150 0
	ldr	r3, [sp]
	mov	r0, r4
	ldr	r1, [r3, r5]
	bl	lua_pushstring
	.loc 11 151 0
	ldr	r2, .L262
	mov	r1, #2
	mov	r0, r4
.LPIC140:
	add	r2, pc
	neg	r1, r1
	bl	lua_setfield
	.loc 11 152 0
	ldr	r3, [sp]
	add	r3, r3, r5
	ldr	r0, [r3, #4]
	bl	__aeabi_i2d
	mov	r3, r1
	mov	r2, r0
	mov	r0, r4
	bl	lua_pushnumber
	.loc 11 153 0
	ldr	r2, .L262+4
	mov	r1, #2
	mov	r0, r4
.LPIC141:
	add	r2, pc
	neg	r1, r1
	bl	lua_setfield
	.loc 11 154 0
	mov	r1, #0
	mov	r2, r1
	mov	r0, r4
	bl	lua_createtable
	.loc 11 155 0
	ldr	r3, [sp]
	add	r3, r3, r5
	ldr	r0, [r3, #8]
	ldr	r1, [r3, #12]
	bl	__aeabi_ul2d
	mov	r3, r1
	mov	r2, r0
	mov	r0, r4
	bl	lua_pushnumber
	.loc 11 156 0
	ldr	r2, .L262+8
	mov	r1, #2
	mov	r0, r4
.LPIC142:
	add	r2, pc
	neg	r1, r1
	bl	lua_setfield
	.loc 11 157 0
	ldr	r3, [sp]
	add	r3, r3, r5
	ldr	r0, [r3, #16]
	ldr	r1, [r3, #20]
	bl	__aeabi_ul2d
	mov	r3, r1
	mov	r2, r0
	mov	r0, r4
	bl	lua_pushnumber
	.loc 11 158 0
	ldr	r2, .L262+12
	mov	r1, #2
	mov	r0, r4
.LPIC143:
	add	r2, pc
	neg	r1, r1
	bl	lua_setfield
	.loc 11 159 0
	ldr	r3, [sp]
	add	r3, r3, r5
	ldr	r0, [r3, #24]
	ldr	r1, [r3, #28]
	bl	__aeabi_ul2d
	mov	r3, r1
	mov	r2, r0
	mov	r0, r4
	bl	lua_pushnumber
	.loc 11 160 0
	ldr	r2, .L262+16
	mov	r1, #2
	mov	r0, r4
.LPIC144:
	add	r2, pc
	neg	r1, r1
	bl	lua_setfield
	.loc 11 161 0
	ldr	r3, [sp]
	add	r3, r3, r5
	ldr	r0, [r3, #32]
	ldr	r1, [r3, #36]
	bl	__aeabi_ul2d
	mov	r3, r1
	mov	r2, r0
	mov	r0, r4
	bl	lua_pushnumber
	.loc 11 162 0
	ldr	r2, .L262+20
	mov	r1, #2
	mov	r0, r4
.LPIC145:
	add	r2, pc
	neg	r1, r1
	bl	lua_setfield
	.loc 11 163 0
	ldr	r3, [sp]
	add	r3, r3, r5
	ldr	r0, [r3, #40]
	ldr	r1, [r3, #44]
	bl	__aeabi_ul2d
	mov	r3, r1
	mov	r2, r0
	mov	r0, r4
	bl	lua_pushnumber
	.loc 11 164 0
	ldr	r2, .L262+24
	mov	r1, #2
	mov	r0, r4
.LPIC146:
	add	r2, pc
	neg	r1, r1
	bl	lua_setfield
	.loc 11 165 0
	ldr	r2, .L262+28
	mov	r1, #2
	mov	r0, r4
.LPIC147:
	add	r2, pc
	neg	r1, r1
	bl	lua_setfield
	.loc 11 166 0
	mov	r1, #2
	mov	r0, r4
	neg	r1, r1
	mov	r2, r6
	mov	r3, r7
	bl	lua_rawseti
	add	r5, r5, #48
.L260:
	.loc 11 148 0 discriminator 1
	ldr	r1, [sp, #4]
	mov	r2, #1
	mov	r3, #0
	.loc 11 166 0
	mov	r0, r6
.LVL304:
	.loc 11 148 0 discriminator 1
	add	r6, r6, r2
	adc	r7, r7, r3
.LVL305:
	cmp	r0, r1
	bge	.LCB3260
	b	.L261	@long jump
.LCB3260:
	.loc 11 169 0
	ldr	r0, [sp]
.LVL306:
	bl	uv_free_cpu_info
	.loc 11 170 0
	mov	r0, #1
.L259:
	.loc 11 171 0
	@ sp needed for prologue
.LVL307:
	pop	{r1, r2, r3, r4, r5, r6, r7, pc}
.L263:
	.align	2
.L262:
	.word	.LC112-(.LPIC140+4)
	.word	.LC113-(.LPIC141+4)
	.word	.LC114-(.LPIC142+4)
	.word	.LC115-(.LPIC143+4)
	.word	.LC116-(.LPIC144+4)
	.word	.LC85-(.LPIC145+4)
	.word	.LC117-(.LPIC146+4)
	.word	.LC118-(.LPIC147+4)
	.cfi_endproc
.LFE276:
	.fnend
	.size	luv_cpu_info, .-luv_cpu_info
	.section	.text.luv_os_homedir,"ax",%progbits
	.align	1
	.code	16
	.thumb_func
	.type	luv_os_homedir, %function
luv_os_homedir:
	.fnstart
.LFB282:
	.loc 11 250 0
	.cfi_startproc
	.save	{r4, r5, lr}
	push	{r4, r5, lr}
.LCFI47:
	.cfi_def_cfa_offset 12
	.cfi_offset 4, -12
	.cfi_offset 5, -8
	.cfi_offset 14, -4
.LVL308:
	ldr	r4, .L268
	ldr	r2, .L268+4
	mov	r5, r0
	.pad #8204
	add	sp, sp, r4
.LCFI48:
	.cfi_def_cfa_offset 8216
	.loc 11 250 0
	ldr	r4, .L268+8
	add	r2, r2, sp
	.loc 11 253 0
	mov	r1, sp
	.loc 11 250 0
.LPIC149:
	add	r4, pc
	ldr	r4, [r4]
	.loc 11 253 0
	add	r0, sp, #4
.LVL309:
	.loc 11 250 0
	ldr	r3, [r4]
	str	r3, [r2]
	.loc 11 251 0
	mov	r3, #128
	lsl	r3, r3, #6
	str	r3, [sp]
.LVL310:
	.loc 11 253 0
	bl	uv_os_homedir
	mov	r1, r0
.LVL311:
	.loc 11 254 0 discriminator 1
	mov	r0, r5
.LVL312:
	.loc 11 254 0 is_stmt 0
	cmp	r1, #0
	bge	.L265
	.loc 11 254 0 discriminator 1
	bl	luv_error
.LVL313:
	b	.L266
.LVL314:
.L265:
	.loc 11 255 0 is_stmt 1
	add	r1, sp, #4
.LVL315:
	ldr	r2, [sp]
	bl	lua_pushlstring
	.loc 11 256 0
	mov	r0, #1
.L266:
	.loc 11 257 0
	ldr	r3, .L268+4
	add	r3, r3, sp
	ldr	r2, [r3]
	ldr	r3, [r4]
	cmp	r2, r3
	beq	.L267
	bl	__stack_chk_fail
.L267:
	ldr	r3, .L268+12
	add	sp, sp, r3
	@ sp needed for prologue
.LVL316:
	pop	{r4, r5, pc}
.L269:
	.align	2
.L268:
	.word	-8204
	.word	8196
	.word	__stack_chk_guard(GOT_PREL)+(.-(.LPIC149+4))
	.word	8204
	.cfi_endproc
.LFE282:
	.fnend
	.size	luv_os_homedir, .-luv_os_homedir
	.section	.text.luv_chdir,"ax",%progbits
	.align	1
	.code	16
	.thumb_func
	.type	luv_chdir, %function
luv_chdir:
	.fnstart
.LFB281:
	.loc 11 243 0
	.cfi_startproc
	.save	{r4, lr}
	push	{r4, lr}
.LCFI49:
	.cfi_def_cfa_offset 8
	.cfi_offset 4, -8
	.cfi_offset 14, -4
.LVL317:
	.loc 11 244 0
	mov	r2, #0
	mov	r1, #1
	.loc 11 243 0
	mov	r4, r0
	.loc 11 244 0
	bl	luaL_checklstring
.LVL318:
	bl	uv_chdir
	.loc 11 245 0
	sub	r2, r0, #0
	bge	.L271
	.loc 11 245 0 is_stmt 0 discriminator 1
	mov	r0, r4
	mov	r1, r2
	bl	luv_error
	b	.L272
.L271:
	.loc 11 246 0 is_stmt 1
	mov	r0, r4
	asr	r3, r2, #31
	bl	lua_pushinteger
	.loc 11 247 0
	mov	r0, #1
.L272:
	.loc 11 248 0
	@ sp needed for prologue
.LVL319:
	pop	{r4, pc}
	.cfi_endproc
.LFE281:
	.fnend
	.size	luv_chdir, .-luv_chdir
	.section	.text.luv_cleanup_req,"ax",%progbits
	.align	1
	.code	16
	.thumb_func
	.type	luv_cleanup_req, %function
luv_cleanup_req:
	.fnstart
.LFB50:
	.loc 9 65 0
	.cfi_startproc
	.save	{r4, r5, r6, lr}
	push	{r4, r5, r6, lr}
.LCFI50:
	.cfi_def_cfa_offset 16
	.cfi_offset 4, -16
	.cfi_offset 5, -12
	.cfi_offset 6, -8
	.cfi_offset 14, -4
.LVL320:
	.loc 9 66 0
	ldr	r6, .L274
	.loc 9 65 0
	mov	r4, r1
	mov	r5, r0
	.loc 9 66 0
	ldr	r2, [r1]
	mov	r1, r6
.LVL321:
	bl	luaL_unref
.LVL322:
	.loc 9 67 0
	mov	r0, r5
	mov	r1, r6
	ldr	r2, [r4, #4]
	bl	luaL_unref
	.loc 9 68 0
	mov	r1, r6
	ldr	r2, [r4, #8]
	mov	r0, r5
	bl	luaL_unref
	.loc 9 69 0
	ldr	r0, [r4, #12]
	bl	free
	.loc 9 70 0
	mov	r0, r4
	bl	free
	.loc 9 71 0
	@ sp needed for prologue
.LVL323:
.LVL324:
	pop	{r4, r5, r6, pc}
.L275:
	.align	2
.L274:
	.word	-1001000
	.cfi_endproc
.LFE50:
	.fnend
	.size	luv_cleanup_req, .-luv_cleanup_req
	.section	.text.luv_check_callback,"ax",%progbits
	.align	1
	.code	16
	.thumb_func
	.type	luv_check_callback, %function
luv_check_callback:
	.fnstart
.LFB42:
	.loc 10 48 0
	.cfi_startproc
	.save	{r0, r1, r2, r4, r5, r6, r7, lr}
	push	{r0, r1, r2, r4, r5, r6, r7, lr}
.LCFI51:
	.cfi_def_cfa_offset 32
	.cfi_offset 0, -32
	.cfi_offset 1, -28
	.cfi_offset 2, -24
	.cfi_offset 4, -20
	.cfi_offset 5, -16
	.cfi_offset 6, -12
	.cfi_offset 7, -8
	.cfi_offset 14, -4
.LVL325:
	.loc 10 48 0
	str	r1, [sp, #4]
	mov	r4, r2
	.loc 10 49 0
	mov	r1, r3
.LVL326:
	mov	r2, #6
.LVL327:
	.loc 10 48 0
	mov	r5, r0
	mov	r6, r3
	.loc 10 49 0
	bl	luaL_checktype
.LVL328:
	.loc 10 50 0
	ldr	r3, [sp, #4]
	ldr	r7, .L277
	lsl	r4, r4, #2
.LVL329:
	add	r4, r3, r4
	ldr	r2, [r4, #4]
	mov	r0, r5
	mov	r1, r7
	bl	luaL_unref
	.loc 10 51 0
	mov	r0, r5
	mov	r1, r6
	bl	lua_pushvalue
	.loc 10 52 0
	mov	r0, r5
	mov	r1, r7
	bl	luaL_ref
	.loc 10 53 0
	@ sp needed for prologue
	.loc 10 52 0
	str	r0, [r4, #4]
.LVL330:
.LVL331:
	.loc 10 53 0
	pop	{r0, r1, r2, r4, r5, r6, r7, pc}
.L278:
	.align	2
.L277:
	.word	-1001000
	.cfi_endproc
.LFE42:
	.fnend
	.size	luv_check_callback, .-luv_check_callback
	.section	.text.luv_work_ctx_gc,"ax",%progbits
	.align	1
	.code	16
	.thumb_func
	.type	luv_work_ctx_gc, %function
luv_work_ctx_gc:
	.fnstart
.LFB259:
	.loc 8 47 0
	.cfi_startproc
	.save	{r4, r5, r6, lr}
	push	{r4, r5, r6, lr}
.LCFI52:
	.cfi_def_cfa_offset 16
	.cfi_offset 4, -16
	.cfi_offset 5, -12
	.cfi_offset 6, -8
	.cfi_offset 14, -4
.LVL332:
.LBB168:
.LBB169:
	.loc 8 42 0
	ldr	r2, .L280
	mov	r1, #1
.LBE169:
.LBE168:
	.loc 8 47 0
	mov	r5, r0
.LBB172:
.LBB170:
	.loc 8 42 0
.LPIC150:
	add	r2, pc
	bl	luaL_checkudata
.LVL333:
.LBE170:
.LBE172:
	.loc 8 50 0
	ldr	r6, .L280+4
.LBB173:
.LBB171:
	.loc 8 42 0
	mov	r4, r0
.LVL334:
.LBE171:
.LBE173:
	.loc 8 49 0
	ldr	r0, [r0, #4]
.LVL335:
	bl	free
	.loc 8 50 0
	mov	r0, r5
	mov	r1, r6
	ldr	r2, [r4, #80]
	bl	luaL_unref
	.loc 8 51 0
	mov	r0, r5
	mov	r1, r6
	ldr	r2, [r4, #76]
	bl	luaL_unref
	.loc 8 54 0
	@ sp needed for prologue
	mov	r0, #0
.LVL336:
.LVL337:
	pop	{r4, r5, r6, pc}
.L281:
	.align	2
.L280:
	.word	.LC25-(.LPIC150+4)
	.word	-1001000
	.cfi_endproc
.LFE259:
	.fnend
	.size	luv_work_ctx_gc, .-luv_work_ctx_gc
	.section	.text.luv_fulfill_req,"ax",%progbits
	.align	1
	.code	16
	.thumb_func
	.type	luv_fulfill_req, %function
luv_fulfill_req:
	.fnstart
.LFB49:
	.loc 9 50 0
	.cfi_startproc
	.save	{r0, r1, r2, r4, r5, lr}
	push	{r0, r1, r2, r4, r5, lr}
.LCFI53:
	.cfi_def_cfa_offset 24
	.cfi_offset 0, -24
	.cfi_offset 1, -20
	.cfi_offset 2, -16
	.cfi_offset 4, -12
	.cfi_offset 5, -8
	.cfi_offset 14, -4
.LVL338:
	.loc 9 50 0
	mov	r5, r2
	.loc 9 51 0
	ldr	r2, [r1, #4]
.LVL339:
	.loc 9 50 0
	mov	r4, r0
	.loc 9 51 0
	add	r3, r2, #2
	bne	.L283
	.loc 9 52 0
	mvn	r1, r5
.LVL340:
	bl	lua_settop
.LVL341:
	b	.L282
.LVL342:
.L283:
	.loc 9 56 0
	asr	r3, r2, #31
	ldr	r1, .L286
.LVL343:
	bl	lua_rawgeti
	.loc 9 58 0
	cmp	r5, #0
	beq	.L285
	.loc 9 59 0
	mvn	r1, r5
	mov	r0, r4
	mov	r2, #1
	bl	lua_rotate
.L285:
	.loc 9 61 0
	mov	r3, #0
	mov	r0, r4
	mov	r1, r5
	mov	r2, r3
	str	r3, [sp]
	bl	lua_callk
.L282:
	.loc 9 63 0
	@ sp needed for prologue
.LVL344:
.LVL345:
	pop	{r0, r1, r2, r4, r5, pc}
.L287:
	.align	2
.L286:
	.word	-1001000
	.cfi_endproc
.LFE49:
	.fnend
	.size	luv_fulfill_req, .-luv_fulfill_req
	.section	.text.luv_walk_cb,"ax",%progbits
	.align	1
	.code	16
	.thumb_func
	.type	luv_walk_cb, %function
luv_walk_cb:
	.fnstart
.LFB59:
	.file 13 "jni/luv/luv/loop.c"
	.loc 13 75 0
	.cfi_startproc
	.save	{r0, r1, r2, r4, r5, lr}
	push	{r0, r1, r2, r4, r5, lr}
.LCFI54:
	.cfi_def_cfa_offset 24
	.cfi_offset 0, -24
	.cfi_offset 1, -20
	.cfi_offset 2, -16
	.cfi_offset 4, -12
	.cfi_offset 5, -8
	.cfi_offset 14, -4
.LVL346:
	.loc 13 77 0
	ldr	r4, [r0]
.LVL347:
	.loc 13 75 0
	mov	r5, r1
	.loc 13 83 0
	mov	r0, r1
.LVL348:
	mov	r1, #1
.LVL349:
	bl	lua_pushvalue
.LVL350:
.LBB174:
.LBB175:
	.loc 10 112 0
	ldr	r2, [r4]
	mov	r0, r5
	ldr	r1, .L289
	asr	r3, r2, #31
	bl	lua_rawgeti
.LBE175:
.LBE174:
	.loc 13 85 0
	mov	r3, #0
	mov	r0, r5
	mov	r1, #1
	mov	r2, r3
	str	r3, [sp]
	.loc 13 86 0
	@ sp needed for prologue
	.loc 13 85 0
	bl	lua_callk
.LVL351:
.LVL352:
	.loc 13 86 0
	pop	{r0, r1, r2, r4, r5, pc}
.L290:
	.align	2
.L289:
	.word	-1001000
	.cfi_endproc
.LFE59:
	.fnend
	.size	luv_walk_cb, .-luv_walk_cb
	.section	.text.luv_pushaddrinfo,"ax",%progbits
	.align	1
	.code	16
	.thumb_func
	.type	luv_pushaddrinfo, %function
luv_pushaddrinfo:
	.fnstart
.LFB235:
	.file 14 "jni/luv/luv/dns.c"
	.loc 14 25 0
	.cfi_startproc
	.save	{r4, r5, r6, r7, lr}
	push	{r4, r5, r6, r7, lr}
.LCFI55:
	.cfi_def_cfa_offset 20
	.cfi_offset 4, -20
	.cfi_offset 5, -16
	.cfi_offset 6, -12
	.cfi_offset 7, -8
	.cfi_offset 14, -4
.LVL353:
	ldr	r6, .L311
	mov	r4, r1
	.loc 14 30 0
	mov	r1, #0
.LVL354:
	.loc 14 25 0
.LPIC163:
	add	r6, pc
	ldr	r6, [r6]
	.pad #68
	sub	sp, sp, #68
.LCFI56:
	.cfi_def_cfa_offset 88
	.loc 14 30 0
	mov	r2, r1
	.loc 14 25 0
	ldr	r3, [r6]
	mov	r5, r0
	.loc 14 27 0
	mov	r7, #0
	.loc 14 25 0
	str	r3, [sp, #60]
.LVL355:
	.loc 14 30 0
	bl	lua_createtable
.LVL356:
	str	r6, [sp, #4]
	.loc 14 31 0
	b	.L292
.LVL357:
.L306:
	.loc 14 32 0
	ldr	r3, [r4, #4]
	cmp	r3, #10
	beq	.L309
	cmp	r3, #2
	beq	.LCB3717
	b	.L293	@long jump
.LCB3717:
.L309:
	.loc 14 33 0
	mov	r1, #0
	mov	r0, r5
	mov	r2, r1
	bl	lua_createtable
	.loc 14 34 0
	ldr	r0, [r4, #4]
	ldr	r3, [r4, #24]
	cmp	r0, #2
	bne	.L295
	.loc 14 35 0
	add	r1, r3, #4
	str	r1, [sp]
.LVL358:
	b	.L310
.LVL359:
.L295:
	.loc 14 38 0
	mov	r2, r3
	add	r2, r2, #8
	str	r2, [sp]
.L310:
.LVL360:
	.loc 14 39 0
	ldrh	r6, [r3, #2]
.LVL361:
	.loc 14 41 0
	bl	luv_af_num_to_string
	mov	r1, r0
	mov	r0, r5
	bl	lua_pushstring
	.loc 14 42 0
	ldr	r2, .L311+4
	mov	r1, #2
	mov	r0, r5
.LPIC157:
	add	r2, pc
	neg	r1, r1
	bl	lua_setfield
	.loc 14 43 0
	add	r2, sp, #12
	mov	r3, #46
	ldr	r1, [sp]
	ldr	r0, [r4, #4]
	bl	uv_inet_ntop
	.loc 14 44 0
	add	r1, sp, #12
	mov	r0, r5
	bl	lua_pushstring
	.loc 14 45 0
	ldr	r2, .L311+8
	mov	r1, #2
	mov	r0, r5
.LPIC158:
	add	r2, pc
	neg	r1, r1
	bl	lua_setfield
.LVL362:
.LBB176:
	.loc 14 46 0
	lsr	r2, r6, #8
	lsl	r6, r6, #8
.LVL363:
	orr	r2, r6
	lsl	r2, r2, #16
	lsr	r2, r2, #16
.LBE176:
	beq	.L297
	.loc 14 47 0
	mov	r0, r5
	mov	r3, #0
	bl	lua_pushinteger
	.loc 14 48 0
	ldr	r2, .L311+12
	mov	r1, #2
	mov	r0, r5
.LPIC159:
	add	r2, pc
	neg	r1, r1
	bl	lua_setfield
.LVL364:
.L297:
.LBB177:
.LBB178:
	.loc 2 451 0
	ldr	r0, [r4, #8]
	.loc 2 468 0
	mov	r1, #0
	.loc 2 451 0
	sub	r0, r0, #1
	cmp	r0, #4
	bhi	.L300
	bl	__gnu_thumb1_case_uqi
.L304:
	.byte	(.L299-.L304)/2
	.byte	(.L308-.L304)/2
	.byte	(.L301-.L304)/2
	.byte	(.L302-.L304)/2
	.byte	(.L303-.L304)/2
	.align	1
.L299:
	.loc 2 453 0
	ldr	r1, .L311+16
.LPIC152:
	add	r1, pc
	b	.L300
.L303:
	.loc 2 459 0
	ldr	r1, .L311+20
.LPIC154:
	add	r1, pc
	b	.L300
.L301:
	.loc 2 462 0
	ldr	r1, .L311+24
.LPIC155:
	add	r1, pc
	b	.L300
.L302:
	.loc 2 465 0
	ldr	r1, .L311+28
.LPIC156:
	add	r1, pc
	b	.L300
.L308:
	.loc 2 456 0
	ldr	r1, .L311+32
.LPIC153:
	add	r1, pc
.L300:
.LBE178:
.LBE177:
	.loc 14 50 0
	mov	r0, r5
	bl	lua_pushstring
.LVL365:
	.loc 14 51 0
	ldr	r2, .L311+36
	mov	r1, #2
	neg	r1, r1
.LPIC160:
	add	r2, pc
	mov	r0, r5
	bl	lua_setfield
	.loc 14 52 0
	ldr	r0, [r4, #12]
	bl	luv_af_num_to_string
	mov	r1, r0
	mov	r0, r5
	bl	lua_pushstring
	.loc 14 53 0
	ldr	r2, .L311+40
	mov	r1, #2
	neg	r1, r1
.LPIC161:
	add	r2, pc
	mov	r0, r5
	bl	lua_setfield
	.loc 14 54 0
	ldr	r1, [r4, #20]
	cmp	r1, #0
	beq	.L305
	.loc 14 55 0
	mov	r0, r5
	bl	lua_pushstring
	.loc 14 56 0
	ldr	r2, .L311+44
	mov	r1, #2
	mov	r0, r5
.LPIC162:
	add	r2, pc
	neg	r1, r1
	bl	lua_setfield
.L305:
	.loc 14 58 0
	add	r7, r7, #1
.LVL366:
	mov	r1, #2
	asr	r3, r7, #31
	mov	r0, r5
	neg	r1, r1
	mov	r2, r7
	bl	lua_rawseti
.LVL367:
.L293:
	.loc 14 31 0
	ldr	r4, [r4, #28]
.LVL368:
.L292:
	.loc 14 31 0 is_stmt 0 discriminator 1
	cmp	r4, #0
	beq	.LCB3902
	b	.L306	@long jump
.LCB3902:
	.loc 14 61 0 is_stmt 1
	ldr	r1, [sp, #4]
	ldr	r2, [sp, #60]
	ldr	r3, [r1]
	cmp	r2, r3
	beq	.L307
	bl	__stack_chk_fail
.L307:
	add	sp, sp, #68
	@ sp needed for prologue
.LVL369:
.LVL370:
.LVL371:
	pop	{r4, r5, r6, r7, pc}
.L312:
	.align	2
.L311:
	.word	__stack_chk_guard(GOT_PREL)+(.-(.LPIC163+4))
	.word	.LC79-(.LPIC157+4)
	.word	.LC123-(.LPIC158+4)
	.word	.LC124-(.LPIC159+4)
	.word	.LC90-(.LPIC152+4)
	.word	.LC120-(.LPIC154+4)
	.word	.LC121-(.LPIC155+4)
	.word	.LC122-(.LPIC156+4)
	.word	.LC119-(.LPIC153+4)
	.word	.LC125-(.LPIC160+4)
	.word	.LC126-(.LPIC161+4)
	.word	.LC127-(.LPIC162+4)
	.cfi_endproc
.LFE235:
	.fnend
	.size	luv_pushaddrinfo, .-luv_pushaddrinfo
	.section	.text.parse_sockaddr,"ax",%progbits
	.align	1
	.code	16
	.thumb_func
	.type	parse_sockaddr, %function
parse_sockaddr:
	.fnstart
.LFB150:
	.file 15 "jni/luv/luv/tcp.c"
	.loc 15 104 0
	.cfi_startproc
	.save	{r4, r5, r6, r7, lr}
	push	{r4, r5, r6, r7, lr}
.LCFI57:
	.cfi_def_cfa_offset 20
	.cfi_offset 4, -20
	.cfi_offset 5, -16
	.cfi_offset 6, -12
	.cfi_offset 7, -8
	.cfi_offset 14, -4
.LVL372:
	ldr	r4, .L319
	.pad #68
	sub	sp, sp, #68
.LCFI58:
	.cfi_def_cfa_offset 88
	.loc 15 104 0
	mov	r6, r1
.LPIC168:
	add	r4, pc
	ldr	r4, [r4]
	.loc 15 107 0
	mov	r1, #0
.LVL373:
	.loc 15 104 0
	str	r2, [sp, #4]
	ldr	r3, [r4]
	.loc 15 107 0
	mov	r2, r1
.LVL374:
	.loc 15 104 0
	mov	r5, r0
	str	r3, [sp, #60]
.LVL375:
	.loc 15 107 0
	bl	lua_createtable
.LVL376:
	.loc 15 108 0
	ldrh	r0, [r6]
	mov	r7, r4
.LBB179:
	.loc 15 110 0
	add	r1, r6, #4
.LBE179:
	.loc 15 108 0
	cmp	r0, #2
	beq	.L318
	.loc 15 106 0
	mov	r4, #0
	.loc 15 112 0
	cmp	r0, #10
	bne	.L315
.LVL377:
.LBB180:
	.loc 15 114 0
	mov	r1, r6
	add	r1, r1, #8
.LVL378:
.L318:
	ldr	r3, [sp, #4]
	add	r2, sp, #12
	bl	uv_inet_ntop
.LBB181:
	.loc 15 115 0
	ldrh	r3, [r6, #2]
.LVL379:
	lsl	r4, r3, #8
	lsr	r3, r3, #8
.LVL380:
	orr	r4, r3
.LBE181:
	lsl	r4, r4, #16
	lsr	r4, r4, #16
.LVL381:
.L315:
.LBE180:
	.loc 15 118 0
	ldrh	r0, [r6]
	bl	luv_af_num_to_string
	mov	r1, r0
	mov	r0, r5
	bl	lua_pushstring
	.loc 15 119 0
	ldr	r2, .L319+4
	mov	r1, #2
	neg	r1, r1
.LPIC165:
	add	r2, pc
	mov	r0, r5
	bl	lua_setfield
	.loc 15 120 0
	asr	r3, r4, #31
	mov	r0, r5
	mov	r2, r4
	bl	lua_pushinteger
	.loc 15 121 0
	ldr	r2, .L319+8
	mov	r1, #2
	mov	r0, r5
.LPIC166:
	add	r2, pc
	neg	r1, r1
	bl	lua_setfield
	.loc 15 122 0
	add	r1, sp, #12
	mov	r0, r5
	bl	lua_pushstring
	.loc 15 123 0
	ldr	r2, .L319+12
	mov	r1, #2
	mov	r0, r5
.LPIC167:
	add	r2, pc
	neg	r1, r1
	bl	lua_setfield
	.loc 15 124 0
	ldr	r2, [sp, #60]
	ldr	r3, [r7]
	cmp	r2, r3
	beq	.L316
	bl	__stack_chk_fail
.L316:
	add	sp, sp, #68
	@ sp needed for prologue
.LVL382:
.LVL383:
.LVL384:
	pop	{r4, r5, r6, r7, pc}
.L320:
	.align	2
.L319:
	.word	__stack_chk_guard(GOT_PREL)+(.-(.LPIC168+4))
	.word	.LC79-(.LPIC165+4)
	.word	.LC124-(.LPIC166+4)
	.word	.LC78-(.LPIC167+4)
	.cfi_endproc
.LFE150:
	.fnend
	.size	parse_sockaddr, .-parse_sockaddr
	.section	.text.luv_fs_scandir_next,"ax",%progbits
	.align	1
	.code	16
	.thumb_func
	.type	luv_fs_scandir_next, %function
luv_fs_scandir_next:
	.fnstart
.LFB216:
	.loc 12 406 0
	.cfi_startproc
	.save	{r0, r1, r2, r4, r5, lr}
	push	{r0, r1, r2, r4, r5, lr}
.LCFI59:
	.cfi_def_cfa_offset 24
	.cfi_offset 0, -24
	.cfi_offset 1, -20
	.cfi_offset 2, -16
	.cfi_offset 4, -12
	.cfi_offset 5, -8
	.cfi_offset 14, -4
.LVL385:
.LBB182:
.LBB183:
	.loc 12 21 0
	ldr	r2, .L339
	mov	r1, #1
.LBE183:
.LBE182:
	.loc 12 406 0
	mov	r5, r0
.LBB185:
.LBB184:
	.loc 12 21 0
.LPIC176:
	add	r2, pc
	bl	luaL_checkudata
.LVL386:
	.loc 12 22 0
	ldr	r3, [r0]
	.loc 12 21 0
	mov	r4, r0
.LVL387:
	.loc 12 22 0
	sub	r2, r3, #1
	sbc	r3, r3, r2
	str	r3, [r0, #4]
	.loc 12 20 0
	cmp	r3, #0
	bne	.L322
	.loc 12 22 0
	ldr	r2, .L339+4
	mov	r0, r5
.LVL388:
	mov	r1, #1
.LPIC177:
	add	r2, pc
	bl	luaL_argerror
.LVL389:
.L322:
.LBE184:
.LBE185:
	.loc 12 409 0
	mov	r1, sp
	mov	r0, r4
	bl	uv_fs_scandir_next
	.loc 12 411 0
	ldr	r3, .L339+8
	.loc 12 409 0
	mov	r1, r0
.LVL390:
	.loc 12 411 0
	cmp	r0, r3
	bne	.L323
	.loc 12 412 0
	mov	r0, r5
.LVL391:
	ldr	r1, [r4]
.LVL392:
	.loc 12 413 0
	mov	r5, #0
.LVL393:
	.loc 12 412 0
	bl	luv_cleanup_req
.LVL394:
	.loc 12 414 0
	mov	r0, r4
	.loc 12 413 0
	str	r5, [r4]
	.loc 12 414 0
	bl	uv_fs_req_cleanup
	.loc 12 415 0
	mov	r0, r5
	b	.L324
.LVL395:
.L323:
	.loc 12 417 0 discriminator 1
	mov	r0, r5
.LVL396:
	.loc 12 417 0 is_stmt 0
	cmp	r1, #0
	bge	.L325
	.loc 12 417 0 discriminator 1
	bl	luv_error
.LVL397:
	b	.L324
.LVL398:
.L325:
	.loc 12 418 0 is_stmt 1
	mov	r2, #2
	mov	r1, #0
.LVL399:
	bl	lua_createtable
	.loc 12 419 0
	ldr	r1, [sp]
	mov	r0, r5
	bl	lua_pushstring
	.loc 12 420 0
	ldr	r2, .L339+12
	mov	r1, #2
	mov	r0, r5
.LPIC178:
	add	r2, pc
	neg	r1, r1
	bl	lua_setfield
	.loc 12 421 0
	ldr	r0, [sp, #4]
	cmp	r0, #7
	bhi	.L326
	bl	__gnu_thumb1_case_uqi
.L334:
	.byte	(.L336-.L334)/2
	.byte	(.L327-.L334)/2
	.byte	(.L337-.L334)/2
	.byte	(.L329-.L334)/2
	.byte	(.L330-.L334)/2
	.byte	(.L331-.L334)/2
	.byte	(.L332-.L334)/2
	.byte	(.L333-.L334)/2
	.align	1
.L329:
.LVL400:
	.loc 12 425 0
	ldr	r1, .L339+16
.LPIC173:
	add	r1, pc
	b	.L335
.LVL401:
.L330:
	.loc 12 426 0
	ldr	r1, .L339+20
.LPIC172:
	add	r1, pc
	b	.L335
.LVL402:
.L331:
	.loc 12 427 0
	ldr	r1, .L339+24
.LPIC171:
	add	r1, pc
	b	.L335
.LVL403:
.L332:
	.loc 12 428 0
	ldr	r1, .L339+28
.LPIC170:
	add	r1, pc
	b	.L335
.LVL404:
.L333:
	.loc 12 429 0
	ldr	r1, .L339+32
.LPIC169:
	add	r1, pc
	b	.L335
.LVL405:
.L326:
	.loc 12 431 0
	mov	r1, #0
	.loc 12 435 0
	mov	r0, #1
	.loc 12 431 0
	cmp	r1, r1
	beq	.L324
.L335:
	.loc 12 432 0
	mov	r0, r5
	bl	lua_pushstring
	.loc 12 433 0
	ldr	r2, .L339+36
	mov	r1, #2
	mov	r0, r5
.LPIC179:
	add	r2, pc
	neg	r1, r1
	bl	lua_setfield
.L336:
	.loc 12 435 0
	mov	r0, #1
.LVL406:
.L324:
	.loc 12 436 0
	@ sp needed for prologue
.LVL407:
	pop	{r1, r2, r3, r4, r5, pc}
.LVL408:
.L327:
	.loc 12 423 0
	ldr	r1, .L339+40
.LPIC175:
	add	r1, pc
	b	.L335
.L337:
	.loc 12 424 0
	ldr	r1, .L339+44
.LPIC174:
	add	r1, pc
.LVL409:
	b	.L335
.L340:
	.align	2
.L339:
	.word	.LC14-(.LPIC176+4)
	.word	.LC128-(.LPIC177+4)
	.word	-4095
	.word	.LC129-(.LPIC178+4)
	.word	.LC51-(.LPIC173+4)
	.word	.LC52-(.LPIC172+4)
	.word	.LC53-(.LPIC171+4)
	.word	.LC54-(.LPIC170+4)
	.word	.LC55-(.LPIC169+4)
	.word	.LC72-(.LPIC179+4)
	.word	.LC49-(.LPIC175+4)
	.word	.LC50-(.LPIC174+4)
	.cfi_endproc
.LFE216:
	.fnend
	.size	luv_fs_scandir_next, .-luv_fs_scandir_next
	.section	.text.luv_call_callback,"ax",%progbits
	.align	1
	.code	16
	.thumb_func
	.type	luv_call_callback, %function
luv_call_callback:
	.fnstart
.LFB44:
	.loc 10 76 0
	.cfi_startproc
	.save	{r0, r1, r2, r4, r5, r6, r7, lr}
	push	{r0, r1, r2, r4, r5, r6, r7, lr}
.LCFI60:
	.cfi_def_cfa_offset 32
	.cfi_offset 0, -32
	.cfi_offset 1, -28
	.cfi_offset 2, -24
	.cfi_offset 4, -20
	.cfi_offset 5, -16
	.cfi_offset 6, -12
	.cfi_offset 7, -8
	.cfi_offset 14, -4
.LVL410:
	.loc 10 77 0
	lsl	r2, r2, #2
.LVL411:
	add	r1, r1, r2
.LVL412:
	ldr	r6, [r1, #4]
.LVL413:
	.loc 10 76 0
	mov	r4, r0
	mov	r5, r3
	.loc 10 78 0
	add	r3, r6, #2
	bne	.L342
.LVL414:
	.loc 10 79 0
	mvn	r1, r5
.LVL415:
	b	.L347
.L342:
	.loc 10 83 0
	ldr	r1, .L348
	mov	r2, #0
.LPIC180:
	add	r1, pc
	bl	lua_pushcclosure
.LVL416:
	.loc 10 85 0
	cmp	r5, #0
	beq	.L344
	.loc 10 86 0
	mvn	r1, r5
	mov	r0, r4
	mov	r2, #1
	bl	lua_rotate
.L344:
	.loc 10 89 0
	asr	r3, r6, #31
	mov	r0, r4
	ldr	r1, .L348+4
	mov	r2, r6
	bl	lua_rawgeti
	.loc 10 91 0
	cmp	r5, #0
	beq	.L345
	.loc 10 92 0
	mvn	r1, r5
	mov	r0, r4
	mov	r2, #1
	bl	lua_rotate
.L345:
	.loc 10 95 0
	mov	r7, #2
	mov	r6, #0
.LVL417:
	neg	r7, r7
	sub	r3, r7, r5
	mov	r0, r4
	mov	r1, r5
	mov	r2, r6
	str	r6, [sp]
	str	r6, [sp, #4]
	bl	lua_pcallk
	cmp	r0, r6
	beq	.L346
	.loc 10 96 0
	mov	r1, #1
	neg	r1, r1
	mov	r2, r6
	mov	r0, r4
	bl	lua_tolstring
	mov	r2, r0
	ldr	r0, .L348+8
	ldr	r1, .L348+12
.LPIC183:
	add	r0, pc
	ldr	r0, [r0]
.LPIC182:
	add	r1, pc
	add	r0, r0, #168
	bl	fprintf
	.loc 10 97 0
	mov	r0, #1
	neg	r0, r0
	bl	exit
.L346:
	.loc 10 100 0
	mov	r0, r4
	mov	r1, r7
.L347:
	bl	lua_settop
	.loc 10 102 0
	@ sp needed for prologue
.LVL418:
.LVL419:
	pop	{r0, r1, r2, r4, r5, r6, r7, pc}
.L349:
	.align	2
.L348:
	.word	traceback-(.LPIC180+4)
	.word	-1001000
	.word	__sF(GOT_PREL)+(.-(.LPIC183+4))
	.word	.LC130-(.LPIC182+4)
	.cfi_endproc
.LFE44:
	.fnend
	.size	luv_call_callback, .-luv_call_callback
	.section	.text.luv_tty_get_winsize,"ax",%progbits
	.align	1
	.code	16
	.thumb_func
	.type	luv_tty_get_winsize, %function
luv_tty_get_winsize:
	.fnstart
.LFB170:
	.file 16 "jni/luv/luv/tty.c"
	.loc 16 57 0
	.cfi_startproc
	.save	{r0, r1, r2, r4, r5, lr}
	push	{r0, r1, r2, r4, r5, lr}
.LCFI61:
	.cfi_def_cfa_offset 24
	.cfi_offset 0, -24
	.cfi_offset 1, -20
	.cfi_offset 2, -16
	.cfi_offset 4, -12
	.cfi_offset 5, -8
	.cfi_offset 14, -4
.LVL420:
.LBB186:
.LBB187:
	.loc 16 20 0
	ldr	r2, .L355
	mov	r1, #1
.LBE187:
.LBE186:
	.loc 16 57 0
	mov	r5, r0
.LBB191:
.LBB190:
	.loc 16 20 0
.LPIC184:
	add	r2, pc
	bl	luaL_checkudata
.LVL421:
	.loc 16 19 0
	ldr	r3, [r0, #8]
	.loc 16 20 0
	mov	r4, r0
.LVL422:
	.loc 16 19 0
	cmp	r3, #14
	bne	.L351
	.loc 16 21 0
	ldr	r3, [r0]
	cmp	r3, #0
	bne	.L352
.L351:
.LVL423:
.LBB188:
.LBB189:
	.loc 16 21 0 is_stmt 0 discriminator 1
	ldr	r2, .L355+4
	mov	r0, r5
.LVL424:
	mov	r1, #1
.LPIC185:
	add	r2, pc
	bl	luaL_argerror
.LVL425:
.L352:
.LBE189:
.LBE188:
.LBE190:
.LBE191:
	.loc 16 60 0 is_stmt 1
	mov	r1, sp
	mov	r0, r4
	add	r2, sp, #4
	bl	uv_tty_get_winsize
	.loc 16 61 0
	sub	r1, r0, #0
	bge	.L353
	.loc 16 61 0 is_stmt 0 discriminator 1
	mov	r0, r5
	bl	luv_error
	b	.L354
.L353:
.LVL426:
	.loc 16 62 0 is_stmt 1
	ldr	r2, [sp]
	mov	r0, r5
	asr	r3, r2, #31
	bl	lua_pushinteger
.LVL427:
	.loc 16 63 0
	ldr	r2, [sp, #4]
	mov	r0, r5
	asr	r3, r2, #31
	bl	lua_pushinteger
	.loc 16 64 0
	mov	r0, #2
.L354:
	.loc 16 65 0
	@ sp needed for prologue
.LVL428:
.LVL429:
	pop	{r1, r2, r3, r4, r5, pc}
.L356:
	.align	2
.L355:
	.word	.LC42-(.LPIC184+4)
	.word	.LC131-(.LPIC185+4)
	.cfi_endproc
.LFE170:
	.fnend
	.size	luv_tty_get_winsize, .-luv_tty_get_winsize
	.section	.text.luv_tty_reset_mode,"ax",%progbits
	.align	1
	.code	16
	.thumb_func
	.type	luv_tty_reset_mode, %function
luv_tty_reset_mode:
	.fnstart
.LFB169:
	.loc 16 50 0
	.cfi_startproc
	.save	{r4, lr}
	push	{r4, lr}
.LCFI62:
	.cfi_def_cfa_offset 8
	.cfi_offset 4, -8
	.cfi_offset 14, -4
.LVL430:
	.loc 16 50 0
	mov	r4, r0
	.loc 16 51 0
	bl	uv_tty_reset_mode
.LVL431:
	.loc 16 52 0
	sub	r2, r0, #0
	bge	.L358
	.loc 16 52 0 is_stmt 0 discriminator 1
	mov	r0, r4
	mov	r1, r2
	bl	luv_error
	b	.L359
.L358:
	.loc 16 53 0 is_stmt 1
	mov	r0, r4
	asr	r3, r2, #31
	bl	lua_pushinteger
	.loc 16 54 0
	mov	r0, #1
.L359:
	.loc 16 55 0
	@ sp needed for prologue
.LVL432:
	pop	{r4, pc}
	.cfi_endproc
.LFE169:
	.fnend
	.size	luv_tty_reset_mode, .-luv_tty_reset_mode
	.section	.text.luv_tty_set_mode,"ax",%progbits
	.align	1
	.code	16
	.thumb_func
	.type	luv_tty_set_mode, %function
luv_tty_set_mode:
	.fnstart
.LFB168:
	.loc 16 41 0
	.cfi_startproc
	.save	{r3, r4, r5, lr}
	push	{r3, r4, r5, lr}
.LCFI63:
	.cfi_def_cfa_offset 16
	.cfi_offset 3, -16
	.cfi_offset 4, -12
	.cfi_offset 5, -8
	.cfi_offset 14, -4
.LVL433:
.LBB192:
.LBB193:
	.loc 16 20 0
	ldr	r2, .L365
	mov	r1, #1
.LBE193:
.LBE192:
	.loc 16 41 0
	mov	r5, r0
.LBB197:
.LBB196:
	.loc 16 20 0
.LPIC186:
	add	r2, pc
	bl	luaL_checkudata
.LVL434:
	.loc 16 19 0
	ldr	r3, [r0, #8]
	.loc 16 20 0
	mov	r4, r0
.LVL435:
	.loc 16 19 0
	cmp	r3, #14
	bne	.L361
	.loc 16 21 0
	ldr	r3, [r0]
	cmp	r3, #0
	bne	.L362
.LVL436:
.L361:
.LBB194:
.LBB195:
	.loc 16 21 0 is_stmt 0 discriminator 1
	ldr	r2, .L365+4
	mov	r0, r5
.LVL437:
	mov	r1, #1
.LPIC187:
	add	r2, pc
	bl	luaL_argerror
.LVL438:
.L362:
.LBE195:
.LBE194:
.LBE196:
.LBE197:
	.loc 16 43 0 is_stmt 1
	mov	r0, r5
	mov	r1, #2
	bl	luaL_checkinteger
	mov	r1, r0
.LVL439:
	.loc 16 44 0
	mov	r0, r4
.LVL440:
	bl	uv_tty_set_mode
.LVL441:
	.loc 16 45 0
	sub	r2, r0, #0
	bge	.L363
	.loc 16 45 0 is_stmt 0 discriminator 1
	mov	r0, r5
	mov	r1, r2
	bl	luv_error
	b	.L364
.L363:
	.loc 16 46 0 is_stmt 1
	mov	r0, r5
	asr	r3, r2, #31
	bl	lua_pushinteger
	.loc 16 47 0
	mov	r0, #1
.L364:
	.loc 16 48 0
	@ sp needed for prologue
.LVL442:
.LVL443:
	pop	{r3, r4, r5, pc}
.L366:
	.align	2
.L365:
	.word	.LC42-(.LPIC186+4)
	.word	.LC131-(.LPIC187+4)
	.cfi_endproc
.LFE168:
	.fnend
	.size	luv_tty_set_mode, .-luv_tty_set_mode
	.section	.text.luv_check_stream,"ax",%progbits
	.align	1
	.code	16
	.thumb_func
	.type	luv_check_stream, %function
luv_check_stream:
	.fnstart
.LFB125:
	.loc 3 25 0
	.cfi_startproc
	.save	{r3, r4, r5, r6, r7, lr}
	push	{r3, r4, r5, r6, r7, lr}
.LCFI64:
	.cfi_def_cfa_offset 24
	.cfi_offset 3, -24
	.cfi_offset 4, -20
	.cfi_offset 5, -16
	.cfi_offset 6, -12
	.cfi_offset 7, -8
	.cfi_offset 14, -4
.LVL444:
	.loc 3 25 0
	mov	r5, r0
	mov	r6, r1
	.loc 3 28 0
	bl	lua_touserdata
.LVL445:
	sub	r7, r0, #0
	beq	.L368
	.loc 3 29 0
	ldr	r2, .L372
	ldr	r1, .L372+4
	mov	r0, r5
.LPIC188:
	add	r2, pc
	bl	lua_getfield
	.loc 3 30 0 discriminator 1
	lsr	r1, r6, #31
	sub	r1, r6, r1
	.loc 3 30 0 is_stmt 0 discriminator 3
	mov	r0, r5
	bl	lua_getmetatable
	.loc 3 31 0 is_stmt 1
	mov	r1, #2
	neg	r1, r1
	mov	r0, r5
	bl	lua_rawget
	.loc 3 32 0
	mov	r1, #1
	neg	r1, r1
	mov	r0, r5
	bl	lua_toboolean
	.loc 3 33 0
	mov	r1, #3
	.loc 3 32 0
	mov	r4, r0
.LVL446:
	.loc 3 33 0
	neg	r1, r1
	mov	r0, r5
.LVL447:
	bl	lua_settop
	.loc 3 34 0
	cmp	r4, #0
	bne	.L370
.LVL448:
.L368:
	.loc 3 35 0
	ldr	r2, .L372+8
	mov	r0, r5
	mov	r1, r6
.LPIC189:
	add	r2, pc
	bl	luaL_argerror
	.loc 3 36 0
	mov	r7, #0
.L370:
	.loc 3 37 0
	mov	r0, r7
	@ sp needed for prologue
.LVL449:
.LVL450:
	pop	{r3, r4, r5, r6, r7, pc}
.L373:
	.align	2
.L372:
	.word	.LC39-(.LPIC188+4)
	.word	-1001000
	.word	.LC132-(.LPIC189+4)
	.cfi_endproc
.LFE125:
	.fnend
	.size	luv_check_stream, .-luv_check_stream
	.section	.text.luv_stream_set_blocking,"ax",%progbits
	.align	1
	.code	16
	.thumb_func
	.type	luv_stream_set_blocking, %function
luv_stream_set_blocking:
	.fnstart
.LFB142:
	.loc 3 252 0
	.cfi_startproc
	.save	{r3, r4, r5, lr}
	push	{r3, r4, r5, lr}
.LCFI65:
	.cfi_def_cfa_offset 16
	.cfi_offset 3, -16
	.cfi_offset 4, -12
	.cfi_offset 5, -8
	.cfi_offset 14, -4
.LVL451:
	.loc 3 253 0
	mov	r1, #1
	.loc 3 252 0
	mov	r4, r0
	.loc 3 253 0
	bl	luv_check_stream
.LVL452:
	.loc 3 255 0
	mov	r2, #1
	.loc 3 253 0
	mov	r5, r0
.LVL453:
	.loc 3 255 0
	mov	r1, #2
	mov	r0, r4
.LVL454:
	bl	luaL_checktype
	.loc 3 256 0
	mov	r1, #2
	mov	r0, r4
	bl	lua_toboolean
	mov	r1, r0
.LVL455:
	.loc 3 257 0
	mov	r0, r5
.LVL456:
	bl	uv_stream_set_blocking
.LVL457:
	.loc 3 258 0
	sub	r2, r0, #0
	bge	.L375
	.loc 3 258 0 is_stmt 0 discriminator 1
	mov	r0, r4
	mov	r1, r2
	bl	luv_error
	b	.L376
.L375:
	.loc 3 259 0 is_stmt 1
	mov	r0, r4
	asr	r3, r2, #31
	bl	lua_pushinteger
	.loc 3 260 0
	mov	r0, #1
.L376:
	.loc 3 261 0
	@ sp needed for prologue
.LVL458:
.LVL459:
	pop	{r3, r4, r5, pc}
	.cfi_endproc
.LFE142:
	.fnend
	.size	luv_stream_set_blocking, .-luv_stream_set_blocking
	.section	.text.luv_is_writable,"ax",%progbits
	.align	1
	.code	16
	.thumb_func
	.type	luv_is_writable, %function
luv_is_writable:
	.fnstart
.LFB141:
	.loc 3 246 0
	.cfi_startproc
	.save	{r4, lr}
	push	{r4, lr}
.LCFI66:
	.cfi_def_cfa_offset 8
	.cfi_offset 4, -8
	.cfi_offset 14, -4
.LVL460:
	.loc 3 247 0
	mov	r1, #1
	.loc 3 246 0
	mov	r4, r0
	.loc 3 247 0
	bl	luv_check_stream
.LVL461:
	.loc 3 248 0
	bl	uv_is_writable
.LVL462:
	mov	r1, r0
	mov	r0, r4
	bl	lua_pushboolean
	.loc 3 250 0
	@ sp needed for prologue
	mov	r0, #1
.LVL463:
	pop	{r4, pc}
	.cfi_endproc
.LFE141:
	.fnend
	.size	luv_is_writable, .-luv_is_writable
	.section	.text.luv_is_readable,"ax",%progbits
	.align	1
	.code	16
	.thumb_func
	.type	luv_is_readable, %function
luv_is_readable:
	.fnstart
.LFB140:
	.loc 3 240 0
	.cfi_startproc
	.save	{r4, lr}
	push	{r4, lr}
.LCFI67:
	.cfi_def_cfa_offset 8
	.cfi_offset 4, -8
	.cfi_offset 14, -4
.LVL464:
	.loc 3 241 0
	mov	r1, #1
	.loc 3 240 0
	mov	r4, r0
	.loc 3 241 0
	bl	luv_check_stream
.LVL465:
	.loc 3 242 0
	bl	uv_is_readable
.LVL466:
	mov	r1, r0
	mov	r0, r4
	bl	lua_pushboolean
	.loc 3 244 0
	@ sp needed for prologue
	mov	r0, #1
.LVL467:
	pop	{r4, pc}
	.cfi_endproc
.LFE140:
	.fnend
	.size	luv_is_readable, .-luv_is_readable
	.section	.text.luv_read_stop,"ax",%progbits
	.align	1
	.code	16
	.thumb_func
	.type	luv_read_stop, %function
luv_read_stop:
	.fnstart
.LFB134:
	.loc 3 127 0
	.cfi_startproc
	.save	{r4, lr}
	push	{r4, lr}
.LCFI68:
	.cfi_def_cfa_offset 8
	.cfi_offset 4, -8
	.cfi_offset 14, -4
.LVL468:
	.loc 3 128 0
	mov	r1, #1
	.loc 3 127 0
	mov	r4, r0
	.loc 3 128 0
	bl	luv_check_stream
.LVL469:
	.loc 3 129 0
	bl	uv_read_stop
.LVL470:
	.loc 3 130 0
	sub	r2, r0, #0
	bge	.L380
	.loc 3 130 0 is_stmt 0 discriminator 1
	mov	r0, r4
	mov	r1, r2
	bl	luv_error
	b	.L381
.L380:
	.loc 3 131 0 is_stmt 1
	mov	r0, r4
	asr	r3, r2, #31
	bl	lua_pushinteger
	.loc 3 132 0
	mov	r0, #1
.L381:
	.loc 3 133 0
	@ sp needed for prologue
.LVL471:
	pop	{r4, pc}
	.cfi_endproc
.LFE134:
	.fnend
	.size	luv_read_stop, .-luv_read_stop
	.section	.text.luv_read_start,"ax",%progbits
	.align	1
	.code	16
	.thumb_func
	.type	luv_read_start, %function
luv_read_start:
	.fnstart
.LFB133:
	.loc 3 117 0
	.cfi_startproc
	.save	{r3, r4, r5, lr}
	push	{r3, r4, r5, lr}
.LCFI69:
	.cfi_def_cfa_offset 16
	.cfi_offset 3, -16
	.cfi_offset 4, -12
	.cfi_offset 5, -8
	.cfi_offset 14, -4
.LVL472:
	.loc 3 118 0
	mov	r1, #1
	.loc 3 117 0
	mov	r5, r0
	.loc 3 118 0
	bl	luv_check_stream
.LVL473:
	.loc 3 120 0
	mov	r2, #1
	ldr	r1, [r0]
	.loc 3 118 0
	mov	r4, r0
.LVL474:
	.loc 3 120 0
	mov	r3, #2
	mov	r0, r5
.LVL475:
	bl	luv_check_callback
	.loc 3 121 0
	ldr	r1, .L385
	ldr	r2, .L385+4
	mov	r0, r4
.LPIC190:
	add	r1, pc
.LPIC191:
	add	r2, pc
	bl	uv_read_start
	.loc 3 122 0
	sub	r2, r0, #0
	bge	.L383
	.loc 3 122 0 is_stmt 0 discriminator 1
	mov	r0, r5
	mov	r1, r2
	bl	luv_error
	b	.L384
.L383:
	.loc 3 123 0 is_stmt 1
	mov	r0, r5
	asr	r3, r2, #31
	bl	lua_pushinteger
	.loc 3 124 0
	mov	r0, #1
.L384:
	.loc 3 125 0
	@ sp needed for prologue
.LVL476:
.LVL477:
	pop	{r3, r4, r5, pc}
.L386:
	.align	2
.L385:
	.word	luv_alloc_cb-(.LPIC190+4)
	.word	luv_read_cb-(.LPIC191+4)
	.cfi_endproc
.LFE133:
	.fnend
	.size	luv_read_start, .-luv_read_start
	.section	.text.luv_accept,"ax",%progbits
	.align	1
	.code	16
	.thumb_func
	.type	luv_accept, %function
luv_accept:
	.fnstart
.LFB130:
	.loc 3 78 0
	.cfi_startproc
	.save	{r3, r4, r5, lr}
	push	{r3, r4, r5, lr}
.LCFI70:
	.cfi_def_cfa_offset 16
	.cfi_offset 3, -16
	.cfi_offset 4, -12
	.cfi_offset 5, -8
	.cfi_offset 14, -4
.LVL478:
	.loc 3 79 0
	mov	r1, #1
	.loc 3 78 0
	mov	r4, r0
	.loc 3 79 0
	bl	luv_check_stream
.LVL479:
	.loc 3 80 0
	mov	r1, #2
	.loc 3 79 0
	mov	r5, r0
.LVL480:
	.loc 3 80 0
	mov	r0, r4
.LVL481:
	bl	luv_check_stream
	mov	r1, r0
.LVL482:
	.loc 3 81 0
	mov	r0, r5
.LVL483:
	bl	uv_accept
.LVL484:
	.loc 3 82 0
	sub	r2, r0, #0
	bge	.L388
	.loc 3 82 0 is_stmt 0 discriminator 1
	mov	r0, r4
	mov	r1, r2
	bl	luv_error
	b	.L389
.L388:
	.loc 3 83 0 is_stmt 1
	mov	r0, r4
	asr	r3, r2, #31
	bl	lua_pushinteger
	.loc 3 84 0
	mov	r0, #1
.L389:
	.loc 3 85 0
	@ sp needed for prologue
.LVL485:
.LVL486:
	pop	{r3, r4, r5, pc}
	.cfi_endproc
.LFE130:
	.fnend
	.size	luv_accept, .-luv_accept
	.section	.text.luv_listen,"ax",%progbits
	.align	1
	.code	16
	.thumb_func
	.type	luv_listen, %function
luv_listen:
	.fnstart
.LFB129:
	.loc 3 67 0
	.cfi_startproc
	.save	{r4, r5, r6, lr}
	push	{r4, r5, r6, lr}
.LCFI71:
	.cfi_def_cfa_offset 16
	.cfi_offset 4, -16
	.cfi_offset 5, -12
	.cfi_offset 6, -8
	.cfi_offset 14, -4
.LVL487:
	.loc 3 68 0
	mov	r1, #1
	.loc 3 67 0
	mov	r5, r0
	.loc 3 68 0
	bl	luv_check_stream
.LVL488:
	.loc 3 69 0
	mov	r1, #2
	.loc 3 68 0
	mov	r4, r0
.LVL489:
	.loc 3 69 0
	mov	r0, r5
.LVL490:
	bl	luaL_checkinteger
	.loc 3 71 0
	ldr	r1, [r4]
	.loc 3 69 0
	mov	r6, r0
.LVL491:
	.loc 3 71 0
	mov	r2, #1
	mov	r0, r5
.LVL492:
	mov	r3, #3
	bl	luv_check_callback
	.loc 3 72 0
	ldr	r2, .L393
	mov	r0, r4
	mov	r1, r6
.LPIC192:
	add	r2, pc
	bl	uv_listen
	.loc 3 73 0
	sub	r2, r0, #0
	bge	.L391
	.loc 3 73 0 is_stmt 0 discriminator 1
	mov	r0, r5
	mov	r1, r2
	bl	luv_error
	b	.L392
.L391:
	.loc 3 74 0 is_stmt 1
	mov	r0, r5
	asr	r3, r2, #31
	bl	lua_pushinteger
	.loc 3 75 0
	mov	r0, #1
.L392:
	.loc 3 76 0
	@ sp needed for prologue
.LVL493:
.LVL494:
.LVL495:
	pop	{r4, r5, r6, pc}
.L394:
	.align	2
.L393:
	.word	luv_connection_cb-(.LPIC192+4)
	.cfi_endproc
.LFE129:
	.fnend
	.size	luv_listen, .-luv_listen
	.section	.text.luv_shutdown,"ax",%progbits
	.align	1
	.code	16
	.thumb_func
	.type	luv_shutdown, %function
luv_shutdown:
	.fnstart
.LFB127:
	.loc 3 47 0
	.cfi_startproc
	.save	{r3, r4, r5, r6, r7, lr}
	push	{r3, r4, r5, r6, r7, lr}
.LCFI72:
	.cfi_def_cfa_offset 24
	.cfi_offset 3, -24
	.cfi_offset 4, -20
	.cfi_offset 5, -16
	.cfi_offset 6, -12
	.cfi_offset 7, -8
	.cfi_offset 14, -4
.LVL496:
	.loc 3 48 0
	mov	r1, #1
	.loc 3 47 0
	mov	r4, r0
	.loc 3 48 0
	bl	luv_check_stream
.LVL497:
	.loc 3 49 0
	mov	r1, #2
	.loc 3 48 0
	mov	r7, r0
.LVL498:
	.loc 3 49 0
	mov	r0, r4
.LVL499:
	bl	luv_check_continuation
	.loc 3 50 0
	mov	r1, #40
	.loc 3 49 0
	mov	r6, r0
.LVL500:
	.loc 3 50 0
	mov	r0, r4
.LVL501:
	bl	lua_newuserdata
	.loc 3 52 0
	mov	r1, r6
	.loc 3 50 0
	mov	r5, r0
.LVL502:
	.loc 3 52 0
	mov	r0, r4
.LVL503:
	bl	luv_setup_req
	.loc 3 53 0
	ldr	r2, .L398
	.loc 3 52 0
	str	r0, [r5]
	.loc 3 53 0
	mov	r1, r7
	mov	r0, r5
.LPIC193:
	add	r2, pc
	bl	uv_shutdown
	mov	r5, r0
.LVL504:
	.loc 3 58 0
	mov	r0, #1
.LVL505:
	.loc 3 54 0
	cmp	r5, #0
	bge	.L396
	.loc 3 55 0
	mov	r1, #2
	mov	r0, r4
	neg	r1, r1
	bl	lua_settop
	.loc 3 56 0
	mov	r0, r4
	mov	r1, r5
	bl	luv_error
.L396:
	.loc 3 59 0
	@ sp needed for prologue
.LVL506:
.LVL507:
.LVL508:
.LVL509:
	pop	{r3, r4, r5, r6, r7, pc}
.L399:
	.align	2
.L398:
	.word	luv_shutdown_cb-(.LPIC193+4)
	.cfi_endproc
.LFE127:
	.fnend
	.size	luv_shutdown, .-luv_shutdown
	.section	.text.luv_disable_stdio_inheritance,"ax",%progbits
	.align	1
	.code	16
	.thumb_func
	.type	luv_disable_stdio_inheritance, %function
luv_disable_stdio_inheritance:
	.fnstart
.LFB115:
	.loc 5 19 0
	.cfi_startproc
	.save	{r3, lr}
	push	{r3, lr}
.LCFI73:
	.cfi_def_cfa_offset 8
	.cfi_offset 3, -8
	.cfi_offset 14, -4
.LVL510:
	.loc 5 20 0
	bl	uv_disable_stdio_inheritance
.LVL511:
	.loc 5 22 0
	@ sp needed for prologue
	mov	r0, #0
	pop	{r3, pc}
	.cfi_endproc
.LFE115:
	.fnend
	.size	luv_disable_stdio_inheritance, .-luv_disable_stdio_inheritance
	.section	.text.luv_signal_stop,"ax",%progbits
	.align	1
	.code	16
	.thumb_func
	.type	luv_signal_stop, %function
luv_signal_stop:
	.fnstart
.LFB114:
	.file 17 "jni/luv/luv/signal.c"
	.loc 17 66 0
	.cfi_startproc
	.save	{r3, r4, r5, lr}
	push	{r3, r4, r5, lr}
.LCFI74:
	.cfi_def_cfa_offset 16
	.cfi_offset 3, -16
	.cfi_offset 4, -12
	.cfi_offset 5, -8
	.cfi_offset 14, -4
.LVL512:
.LBB198:
.LBB199:
	.loc 17 20 0
	ldr	r2, .L406
	mov	r1, #1
.LBE199:
.LBE198:
	.loc 17 66 0
	mov	r5, r0
.LBB203:
.LBB202:
	.loc 17 20 0
.LPIC194:
	add	r2, pc
	bl	luaL_checkudata
.LVL513:
	.loc 17 19 0
	ldr	r3, [r0, #8]
	.loc 17 20 0
	mov	r4, r0
.LVL514:
	.loc 17 19 0
	cmp	r3, #16
	bne	.L402
	.loc 17 21 0
	ldr	r3, [r0]
	cmp	r3, #0
	bne	.L403
.LVL515:
.L402:
.LBB200:
.LBB201:
	.loc 17 21 0 is_stmt 0 discriminator 1
	ldr	r2, .L406+4
	mov	r0, r5
.LVL516:
	mov	r1, #1
.LPIC195:
	add	r2, pc
	bl	luaL_argerror
.LVL517:
.L403:
.LBE201:
.LBE200:
.LBE202:
.LBE203:
	.loc 17 68 0 is_stmt 1
	mov	r0, r4
	bl	uv_signal_stop
	.loc 17 69 0
	sub	r2, r0, #0
	bge	.L404
	.loc 17 69 0 is_stmt 0 discriminator 1
	mov	r0, r5
	mov	r1, r2
	bl	luv_error
	b	.L405
.L404:
	.loc 17 70 0 is_stmt 1
	mov	r0, r5
	asr	r3, r2, #31
	bl	lua_pushinteger
	.loc 17 71 0
	mov	r0, #1
.L405:
	.loc 17 72 0
	@ sp needed for prologue
.LVL518:
.LVL519:
	pop	{r3, r4, r5, pc}
.L407:
	.align	2
.L406:
	.word	.LC44-(.LPIC194+4)
	.word	.LC133-(.LPIC195+4)
	.cfi_endproc
.LFE114:
	.fnend
	.size	luv_signal_stop, .-luv_signal_stop
	.section	.text.luv_poll_stop,"ax",%progbits
	.align	1
	.code	16
	.thumb_func
	.type	luv_poll_stop, %function
luv_poll_stop:
	.fnstart
.LFB109:
	.file 18 "jni/luv/luv/poll.c"
	.loc 18 93 0
	.cfi_startproc
	.save	{r3, r4, r5, lr}
	push	{r3, r4, r5, lr}
.LCFI75:
	.cfi_def_cfa_offset 16
	.cfi_offset 3, -16
	.cfi_offset 4, -12
	.cfi_offset 5, -8
	.cfi_offset 14, -4
.LVL520:
.LBB204:
.LBB205:
	.loc 18 20 0
	ldr	r2, .L413
	mov	r1, #1
.LBE205:
.LBE204:
	.loc 18 93 0
	mov	r5, r0
.LBB209:
.LBB208:
	.loc 18 20 0
.LPIC196:
	add	r2, pc
	bl	luaL_checkudata
.LVL521:
	.loc 18 19 0
	ldr	r3, [r0, #8]
	.loc 18 20 0
	mov	r4, r0
.LVL522:
	.loc 18 19 0
	cmp	r3, #8
	bne	.L409
	.loc 18 21 0
	ldr	r3, [r0]
	cmp	r3, #0
	bne	.L410
.LVL523:
.L409:
.LBB206:
.LBB207:
	.loc 18 21 0 is_stmt 0 discriminator 1
	ldr	r2, .L413+4
	mov	r0, r5
.LVL524:
	mov	r1, #1
.LPIC197:
	add	r2, pc
	bl	luaL_argerror
.LVL525:
.L410:
.LBE207:
.LBE206:
.LBE208:
.LBE209:
	.loc 18 95 0 is_stmt 1
	mov	r0, r4
	bl	uv_poll_stop
	.loc 18 96 0
	sub	r2, r0, #0
	bge	.L411
	.loc 18 96 0 is_stmt 0 discriminator 1
	mov	r0, r5
	mov	r1, r2
	bl	luv_error
	b	.L412
.L411:
	.loc 18 97 0 is_stmt 1
	mov	r0, r5
	asr	r3, r2, #31
	bl	lua_pushinteger
	.loc 18 98 0
	mov	r0, #1
.L412:
	.loc 18 99 0
	@ sp needed for prologue
.LVL526:
.LVL527:
	pop	{r3, r4, r5, pc}
.L414:
	.align	2
.L413:
	.word	.LC36-(.LPIC196+4)
	.word	.LC134-(.LPIC197+4)
	.cfi_endproc
.LFE109:
	.fnend
	.size	luv_poll_stop, .-luv_poll_stop
	.section	.text.luv_poll_start,"ax",%progbits
	.align	1
	.code	16
	.thumb_func
	.type	luv_poll_start, %function
luv_poll_start:
	.fnstart
.LFB108:
	.loc 18 78 0
	.cfi_startproc
	.save	{r4, r5, r6, lr}
	push	{r4, r5, r6, lr}
.LCFI76:
	.cfi_def_cfa_offset 16
	.cfi_offset 4, -16
	.cfi_offset 5, -12
	.cfi_offset 6, -8
	.cfi_offset 14, -4
.LVL528:
.LBB210:
.LBB211:
	.loc 18 20 0
	ldr	r2, .L425
	mov	r1, #1
.LBE211:
.LBE210:
	.loc 18 78 0
	mov	r5, r0
.LBB215:
.LBB214:
	.loc 18 20 0
.LPIC198:
	add	r2, pc
	bl	luaL_checkudata
.LVL529:
	.loc 18 19 0
	ldr	r3, [r0, #8]
	.loc 18 20 0
	mov	r4, r0
.LVL530:
	.loc 18 19 0
	cmp	r3, #8
	bne	.L416
	.loc 18 21 0
	ldr	r3, [r0]
	cmp	r3, #0
	bne	.L417
.LVL531:
.L416:
.LBB212:
.LBB213:
	.loc 18 21 0 is_stmt 0 discriminator 1
	ldr	r2, .L425+4
	mov	r0, r5
.LVL532:
	mov	r1, #1
.LPIC199:
	add	r2, pc
	bl	luaL_argerror
.LVL533:
.L417:
.LBE213:
.LBE212:
.LBE214:
.LBE215:
	.loc 18 81 0 is_stmt 1
	ldr	r2, .L425+8
	ldr	r3, .L425+12
	mov	r0, r5
.LPIC200:
	add	r2, pc
.LPIC201:
	add	r3, pc
	mov	r1, #2
	bl	luaL_checkoption
	.loc 18 83 0
	mov	r6, #2
	.loc 18 81 0
	cmp	r0, #1
	beq	.L419
	cmp	r0, r6
	beq	.L421
	cmp	r0, #0
	beq	.L424
	b	.L419
.L421:
.LVL534:
	.loc 18 84 0
	mov	r6, #3
	b	.L419
.LVL535:
.L424:
	.loc 18 82 0
	mov	r6, #1
.L419:
.LVL536:
	.loc 18 86 0
	ldr	r1, [r4]
	mov	r0, r5
	mov	r2, #1
	mov	r3, #3
	bl	luv_check_callback
	.loc 18 87 0
	ldr	r2, .L425+16
	mov	r0, r4
	mov	r1, r6
.LPIC202:
	add	r2, pc
	bl	uv_poll_start
	.loc 18 88 0
	sub	r2, r0, #0
	bge	.L422
	.loc 18 88 0 is_stmt 0 discriminator 1
	mov	r0, r5
	mov	r1, r2
	bl	luv_error
	b	.L423
.L422:
	.loc 18 89 0 is_stmt 1
	mov	r0, r5
	asr	r3, r2, #31
	bl	lua_pushinteger
	.loc 18 90 0
	mov	r0, #1
.L423:
	.loc 18 91 0
	@ sp needed for prologue
.LVL537:
.LVL538:
.LVL539:
	pop	{r4, r5, r6, pc}
.L426:
	.align	2
.L425:
	.word	.LC36-(.LPIC198+4)
	.word	.LC134-(.LPIC199+4)
	.word	.LC135-(.LPIC200+4)
	.word	.LANCHOR0-(.LPIC201+4)
	.word	luv_poll_cb-(.LPIC202+4)
	.cfi_endproc
.LFE108:
	.fnend
	.size	luv_poll_start, .-luv_poll_start
	.section	.text.luv_async_send,"ax",%progbits
	.align	1
	.code	16
	.thumb_func
	.type	luv_async_send, %function
luv_async_send:
	.fnstart
.LFB103:
	.file 19 "jni/luv/luv/async.c"
	.loc 19 46 0
	.cfi_startproc
	.save	{r3, r4, r5, lr}
	push	{r3, r4, r5, lr}
.LCFI77:
	.cfi_def_cfa_offset 16
	.cfi_offset 3, -16
	.cfi_offset 4, -12
	.cfi_offset 5, -8
	.cfi_offset 14, -4
.LVL540:
.LBB216:
.LBB217:
	.loc 19 20 0
	ldr	r2, .L432
	mov	r1, #1
.LBE217:
.LBE216:
	.loc 19 46 0
	mov	r5, r0
.LBB219:
.LBB218:
	.loc 19 20 0
.LPIC203:
	add	r2, pc
	bl	luaL_checkudata
.LVL541:
	.loc 19 19 0
	ldr	r3, [r0, #8]
	.loc 19 20 0
	mov	r4, r0
.LVL542:
	.loc 19 19 0
	cmp	r3, #1
	bne	.L428
	.loc 19 21 0
	ldr	r3, [r0]
	cmp	r3, #0
	bne	.L429
.LVL543:
.L428:
	.loc 19 21 0 is_stmt 0 discriminator 1
	ldr	r2, .L432+4
	mov	r0, r5
.LVL544:
	mov	r1, #1
.LPIC204:
	add	r2, pc
	bl	luaL_argerror
.L429:
.LBE218:
.LBE219:
	.loc 19 48 0 is_stmt 1
	mov	r0, r4
	bl	uv_async_send
	.loc 19 49 0
	sub	r2, r0, #0
	bge	.L430
	.loc 19 49 0 is_stmt 0 discriminator 1
	mov	r0, r5
	mov	r1, r2
	bl	luv_error
	b	.L431
.L430:
	.loc 19 50 0 is_stmt 1
	mov	r0, r5
	asr	r3, r2, #31
	bl	lua_pushinteger
	.loc 19 51 0
	mov	r0, #1
.L431:
	.loc 19 52 0
	@ sp needed for prologue
.LVL545:
.LVL546:
	pop	{r3, r4, r5, pc}
.L433:
	.align	2
.L432:
	.word	.LC29-(.LPIC203+4)
	.word	.LC136-(.LPIC204+4)
	.cfi_endproc
.LFE103:
	.fnend
	.size	luv_async_send, .-luv_async_send
	.section	.text.luv_idle_stop,"ax",%progbits
	.align	1
	.code	16
	.thumb_func
	.type	luv_idle_stop, %function
luv_idle_stop:
	.fnstart
.LFB99:
	.file 20 "jni/luv/luv/idle.c"
	.loc 20 52 0
	.cfi_startproc
	.save	{r3, r4, r5, lr}
	push	{r3, r4, r5, lr}
.LCFI78:
	.cfi_def_cfa_offset 16
	.cfi_offset 3, -16
	.cfi_offset 4, -12
	.cfi_offset 5, -8
	.cfi_offset 14, -4
.LVL547:
.LBB220:
.LBB221:
	.loc 20 20 0
	ldr	r2, .L439
	mov	r1, #1
.LBE221:
.LBE220:
	.loc 20 52 0
	mov	r5, r0
.LBB225:
.LBB224:
	.loc 20 20 0
.LPIC205:
	add	r2, pc
	bl	luaL_checkudata
.LVL548:
	.loc 20 19 0
	ldr	r3, [r0, #8]
	.loc 20 20 0
	mov	r4, r0
.LVL549:
	.loc 20 19 0
	cmp	r3, #6
	bne	.L435
	.loc 20 21 0
	ldr	r3, [r0]
	cmp	r3, #0
	bne	.L436
.LVL550:
.L435:
.LBB222:
.LBB223:
	.loc 20 21 0 is_stmt 0 discriminator 1
	ldr	r2, .L439+4
	mov	r0, r5
.LVL551:
	mov	r1, #1
.LPIC206:
	add	r2, pc
	bl	luaL_argerror
.LVL552:
.L436:
.LBE223:
.LBE222:
.LBE224:
.LBE225:
	.loc 20 54 0 is_stmt 1
	mov	r0, r4
	bl	uv_idle_stop
	.loc 20 55 0
	sub	r2, r0, #0
	bge	.L437
	.loc 20 55 0 is_stmt 0 discriminator 1
	mov	r0, r5
	mov	r1, r2
	bl	luv_error
	b	.L438
.L437:
	.loc 20 56 0 is_stmt 1
	mov	r0, r5
	asr	r3, r2, #31
	bl	lua_pushinteger
	.loc 20 57 0
	mov	r0, #1
.L438:
	.loc 20 58 0
	@ sp needed for prologue
.LVL553:
.LVL554:
	pop	{r3, r4, r5, pc}
.L440:
	.align	2
.L439:
	.word	.LC34-(.LPIC205+4)
	.word	.LC137-(.LPIC206+4)
	.cfi_endproc
.LFE99:
	.fnend
	.size	luv_idle_stop, .-luv_idle_stop
	.section	.text.luv_idle_start,"ax",%progbits
	.align	1
	.code	16
	.thumb_func
	.type	luv_idle_start, %function
luv_idle_start:
	.fnstart
.LFB98:
	.loc 20 42 0
	.cfi_startproc
	.save	{r3, r4, r5, lr}
	push	{r3, r4, r5, lr}
.LCFI79:
	.cfi_def_cfa_offset 16
	.cfi_offset 3, -16
	.cfi_offset 4, -12
	.cfi_offset 5, -8
	.cfi_offset 14, -4
.LVL555:
.LBB226:
.LBB227:
	.loc 20 20 0
	ldr	r2, .L446
	mov	r1, #1
.LBE227:
.LBE226:
	.loc 20 42 0
	mov	r5, r0
.LBB231:
.LBB230:
	.loc 20 20 0
.LPIC207:
	add	r2, pc
	bl	luaL_checkudata
.LVL556:
	.loc 20 19 0
	ldr	r3, [r0, #8]
	.loc 20 20 0
	mov	r4, r0
.LVL557:
	.loc 20 19 0
	cmp	r3, #6
	bne	.L442
	.loc 20 21 0
	ldr	r3, [r0]
	cmp	r3, #0
	bne	.L443
.L442:
.LVL558:
.LBB228:
.LBB229:
	.loc 20 21 0 is_stmt 0 discriminator 1
	ldr	r2, .L446+4
	mov	r0, r5
.LVL559:
	mov	r1, #1
.LPIC208:
	add	r2, pc
	bl	luaL_argerror
.LVL560:
.L443:
.LBE229:
.LBE228:
.LBE230:
.LBE231:
	.loc 20 45 0 is_stmt 1
	mov	r2, #1
	ldr	r1, [r4]
	mov	r0, r5
	mov	r3, #2
	bl	luv_check_callback
	.loc 20 46 0
	ldr	r1, .L446+8
	mov	r0, r4
.LPIC209:
	add	r1, pc
	bl	uv_idle_start
	.loc 20 47 0
	sub	r2, r0, #0
	bge	.L444
	.loc 20 47 0 is_stmt 0 discriminator 1
	mov	r0, r5
	mov	r1, r2
	bl	luv_error
	b	.L445
.L444:
	.loc 20 48 0 is_stmt 1
	mov	r0, r5
	asr	r3, r2, #31
	bl	lua_pushinteger
	.loc 20 49 0
	mov	r0, #1
.L445:
	.loc 20 50 0
	@ sp needed for prologue
.LVL561:
.LVL562:
	pop	{r3, r4, r5, pc}
.L447:
	.align	2
.L446:
	.word	.LC34-(.LPIC207+4)
	.word	.LC137-(.LPIC208+4)
	.word	luv_idle_cb-(.LPIC209+4)
	.cfi_endproc
.LFE98:
	.fnend
	.size	luv_idle_start, .-luv_idle_start
	.section	.text.luv_check_stop,"ax",%progbits
	.align	1
	.code	16
	.thumb_func
	.type	luv_check_stop, %function
luv_check_stop:
	.fnstart
.LFB94:
	.file 21 "jni/luv/luv/check.c"
	.loc 21 52 0
	.cfi_startproc
	.save	{r3, r4, r5, lr}
	push	{r3, r4, r5, lr}
.LCFI80:
	.cfi_def_cfa_offset 16
	.cfi_offset 3, -16
	.cfi_offset 4, -12
	.cfi_offset 5, -8
	.cfi_offset 14, -4
.LVL563:
.LBB232:
.LBB233:
	.loc 21 20 0
	ldr	r2, .L453
	mov	r1, #1
.LBE233:
.LBE232:
	.loc 21 52 0
	mov	r5, r0
.LBB237:
.LBB236:
	.loc 21 20 0
.LPIC210:
	add	r2, pc
	bl	luaL_checkudata
.LVL564:
	.loc 21 19 0
	ldr	r3, [r0, #8]
	.loc 21 20 0
	mov	r4, r0
.LVL565:
	.loc 21 19 0
	cmp	r3, #2
	bne	.L449
	.loc 21 21 0
	ldr	r3, [r0]
	cmp	r3, #0
	bne	.L450
.L449:
.LVL566:
.LBB234:
.LBB235:
	.loc 21 21 0 is_stmt 0 discriminator 1
	ldr	r2, .L453+4
	mov	r0, r5
.LVL567:
	mov	r1, #1
.LPIC211:
	add	r2, pc
	bl	luaL_argerror
.LVL568:
.L450:
.LBE235:
.LBE234:
.LBE236:
.LBE237:
	.loc 21 54 0 is_stmt 1
	mov	r0, r4
	bl	uv_check_stop
	.loc 21 55 0
	sub	r2, r0, #0
	bge	.L451
	.loc 21 55 0 is_stmt 0 discriminator 1
	mov	r0, r5
	mov	r1, r2
	bl	luv_error
	b	.L452
.L451:
	.loc 21 56 0 is_stmt 1
	mov	r0, r5
	asr	r3, r2, #31
	bl	lua_pushinteger
	.loc 21 57 0
	mov	r0, #1
.L452:
	.loc 21 58 0
	@ sp needed for prologue
.LVL569:
.LVL570:
	pop	{r3, r4, r5, pc}
.L454:
	.align	2
.L453:
	.word	.LC30-(.LPIC210+4)
	.word	.LC138-(.LPIC211+4)
	.cfi_endproc
.LFE94:
	.fnend
	.size	luv_check_stop, .-luv_check_stop
	.section	.text.luv_check_start,"ax",%progbits
	.align	1
	.code	16
	.thumb_func
	.type	luv_check_start, %function
luv_check_start:
	.fnstart
.LFB93:
	.loc 21 42 0
	.cfi_startproc
	.save	{r3, r4, r5, lr}
	push	{r3, r4, r5, lr}
.LCFI81:
	.cfi_def_cfa_offset 16
	.cfi_offset 3, -16
	.cfi_offset 4, -12
	.cfi_offset 5, -8
	.cfi_offset 14, -4
.LVL571:
.LBB238:
.LBB239:
	.loc 21 20 0
	ldr	r2, .L460
	mov	r1, #1
.LBE239:
.LBE238:
	.loc 21 42 0
	mov	r5, r0
.LBB243:
.LBB242:
	.loc 21 20 0
.LPIC212:
	add	r2, pc
	bl	luaL_checkudata
.LVL572:
	.loc 21 19 0
	ldr	r3, [r0, #8]
	.loc 21 20 0
	mov	r4, r0
.LVL573:
	.loc 21 19 0
	cmp	r3, #2
	bne	.L456
	.loc 21 21 0
	ldr	r3, [r0]
	cmp	r3, #0
	bne	.L457
.L456:
.LVL574:
.LBB240:
.LBB241:
	.loc 21 21 0 is_stmt 0 discriminator 1
	ldr	r2, .L460+4
	mov	r0, r5
.LVL575:
	mov	r1, #1
.LPIC213:
	add	r2, pc
	bl	luaL_argerror
.LVL576:
.L457:
.LBE241:
.LBE240:
.LBE242:
.LBE243:
	.loc 21 45 0 is_stmt 1
	mov	r2, #1
	ldr	r1, [r4]
	mov	r0, r5
	mov	r3, #2
	bl	luv_check_callback
	.loc 21 46 0
	ldr	r1, .L460+8
	mov	r0, r4
.LPIC214:
	add	r1, pc
	bl	uv_check_start
	.loc 21 47 0
	sub	r2, r0, #0
	bge	.L458
	.loc 21 47 0 is_stmt 0 discriminator 1
	mov	r0, r5
	mov	r1, r2
	bl	luv_error
	b	.L459
.L458:
	.loc 21 48 0 is_stmt 1
	mov	r0, r5
	asr	r3, r2, #31
	bl	lua_pushinteger
	.loc 21 49 0
	mov	r0, #1
.L459:
	.loc 21 50 0
	@ sp needed for prologue
.LVL577:
.LVL578:
	pop	{r3, r4, r5, pc}
.L461:
	.align	2
.L460:
	.word	.LC30-(.LPIC212+4)
	.word	.LC138-(.LPIC213+4)
	.word	luv_check_cb-(.LPIC214+4)
	.cfi_endproc
.LFE93:
	.fnend
	.size	luv_check_start, .-luv_check_start
	.section	.text.luv_prepare_stop,"ax",%progbits
	.align	1
	.code	16
	.thumb_func
	.type	luv_prepare_stop, %function
luv_prepare_stop:
	.fnstart
.LFB89:
	.file 22 "jni/luv/luv/prepare.c"
	.loc 22 52 0
	.cfi_startproc
	.save	{r3, r4, r5, lr}
	push	{r3, r4, r5, lr}
.LCFI82:
	.cfi_def_cfa_offset 16
	.cfi_offset 3, -16
	.cfi_offset 4, -12
	.cfi_offset 5, -8
	.cfi_offset 14, -4
.LVL579:
.LBB244:
.LBB245:
	.loc 22 20 0
	ldr	r2, .L467
	mov	r1, #1
.LBE245:
.LBE244:
	.loc 22 52 0
	mov	r5, r0
.LBB249:
.LBB248:
	.loc 22 20 0
.LPIC215:
	add	r2, pc
	bl	luaL_checkudata
.LVL580:
	.loc 22 19 0
	ldr	r3, [r0, #8]
	.loc 22 20 0
	mov	r4, r0
.LVL581:
	.loc 22 19 0
	cmp	r3, #9
	bne	.L463
	.loc 22 21 0
	ldr	r3, [r0]
	cmp	r3, #0
	bne	.L464
.LVL582:
.L463:
.LBB246:
.LBB247:
	.loc 22 21 0 is_stmt 0 discriminator 1
	ldr	r2, .L467+4
	mov	r0, r5
.LVL583:
	mov	r1, #1
.LPIC216:
	add	r2, pc
	bl	luaL_argerror
.LVL584:
.L464:
.LBE247:
.LBE246:
.LBE248:
.LBE249:
	.loc 22 54 0 is_stmt 1
	mov	r0, r4
	bl	uv_prepare_stop
	.loc 22 55 0
	sub	r2, r0, #0
	bge	.L465
	.loc 22 55 0 is_stmt 0 discriminator 1
	mov	r0, r5
	mov	r1, r2
	bl	luv_error
	b	.L466
.L465:
	.loc 22 56 0 is_stmt 1
	mov	r0, r5
	asr	r3, r2, #31
	bl	lua_pushinteger
	.loc 22 57 0
	mov	r0, #1
.L466:
	.loc 22 58 0
	@ sp needed for prologue
.LVL585:
.LVL586:
	pop	{r3, r4, r5, pc}
.L468:
	.align	2
.L467:
	.word	.LC37-(.LPIC215+4)
	.word	.LC139-(.LPIC216+4)
	.cfi_endproc
.LFE89:
	.fnend
	.size	luv_prepare_stop, .-luv_prepare_stop
	.section	.text.luv_prepare_start,"ax",%progbits
	.align	1
	.code	16
	.thumb_func
	.type	luv_prepare_start, %function
luv_prepare_start:
	.fnstart
.LFB88:
	.loc 22 42 0
	.cfi_startproc
	.save	{r3, r4, r5, lr}
	push	{r3, r4, r5, lr}
.LCFI83:
	.cfi_def_cfa_offset 16
	.cfi_offset 3, -16
	.cfi_offset 4, -12
	.cfi_offset 5, -8
	.cfi_offset 14, -4
.LVL587:
.LBB250:
.LBB251:
	.loc 22 20 0
	ldr	r2, .L474
	mov	r1, #1
.LBE251:
.LBE250:
	.loc 22 42 0
	mov	r5, r0
.LBB255:
.LBB254:
	.loc 22 20 0
.LPIC217:
	add	r2, pc
	bl	luaL_checkudata
.LVL588:
	.loc 22 19 0
	ldr	r3, [r0, #8]
	.loc 22 20 0
	mov	r4, r0
.LVL589:
	.loc 22 19 0
	cmp	r3, #9
	bne	.L470
	.loc 22 21 0
	ldr	r3, [r0]
	cmp	r3, #0
	bne	.L471
.L470:
.LVL590:
.LBB252:
.LBB253:
	.loc 22 21 0 is_stmt 0 discriminator 1
	ldr	r2, .L474+4
	mov	r0, r5
.LVL591:
	mov	r1, #1
.LPIC218:
	add	r2, pc
	bl	luaL_argerror
.LVL592:
.L471:
.LBE253:
.LBE252:
.LBE254:
.LBE255:
	.loc 22 45 0 is_stmt 1
	mov	r2, #1
	ldr	r1, [r4]
	mov	r0, r5
	mov	r3, #2
	bl	luv_check_callback
	.loc 22 46 0
	ldr	r1, .L474+8
	mov	r0, r4
.LPIC219:
	add	r1, pc
	bl	uv_prepare_start
	.loc 22 47 0
	sub	r2, r0, #0
	bge	.L472
	.loc 22 47 0 is_stmt 0 discriminator 1
	mov	r0, r5
	mov	r1, r2
	bl	luv_error
	b	.L473
.L472:
	.loc 22 48 0 is_stmt 1
	mov	r0, r5
	asr	r3, r2, #31
	bl	lua_pushinteger
	.loc 22 49 0
	mov	r0, #1
.L473:
	.loc 22 50 0
	@ sp needed for prologue
.LVL593:
.LVL594:
	pop	{r3, r4, r5, pc}
.L475:
	.align	2
.L474:
	.word	.LC37-(.LPIC217+4)
	.word	.LC139-(.LPIC218+4)
	.word	luv_prepare_cb-(.LPIC219+4)
	.cfi_endproc
.LFE88:
	.fnend
	.size	luv_prepare_start, .-luv_prepare_start
	.section	.text.luv_cancel,"ax",%progbits
	.align	1
	.code	16
	.thumb_func
	.type	luv_cancel, %function
luv_cancel:
	.fnstart
.LFB64:
	.loc 7 44 0
	.cfi_startproc
	.save	{r4, r5, r6, lr}
	push	{r4, r5, r6, lr}
.LCFI84:
	.cfi_def_cfa_offset 16
	.cfi_offset 4, -16
	.cfi_offset 5, -12
	.cfi_offset 6, -8
	.cfi_offset 14, -4
.LVL595:
.LBB256:
.LBB257:
	.loc 7 20 0
	ldr	r2, .L480
	mov	r1, #1
.LBE257:
.LBE256:
	.loc 7 44 0
	mov	r5, r0
.LBB259:
.LBB258:
	.loc 7 20 0
.LPIC220:
	add	r2, pc
	bl	luaL_checkudata
.LVL596:
	.loc 7 19 0
	ldr	r3, [r0]
	.loc 7 20 0
	mov	r4, r0
.LVL597:
	.loc 7 19 0
	cmp	r3, #0
	bne	.L477
	.loc 7 21 0
	ldr	r2, .L480+4
	mov	r0, r5
.LVL598:
	mov	r1, #1
.LPIC221:
	add	r2, pc
	bl	luaL_argerror
.L477:
.LBE258:
.LBE259:
	.loc 7 46 0
	mov	r0, r4
	bl	uv_cancel
	.loc 7 47 0
	sub	r6, r0, #0
	bge	.L478
	.loc 7 47 0 is_stmt 0 discriminator 1
	mov	r0, r5
	mov	r1, r6
	bl	luv_error
	b	.L479
.L478:
	.loc 7 48 0 is_stmt 1
	ldr	r1, [r4]
	mov	r0, r5
	bl	luv_cleanup_req
	.loc 7 49 0
	mov	r3, #0
	str	r3, [r4]
	.loc 7 50 0
	mov	r0, r5
	asr	r3, r6, #31
	mov	r2, r6
	bl	lua_pushinteger
	.loc 7 51 0
	mov	r0, #1
.L479:
	.loc 7 52 0
	@ sp needed for prologue
.LVL599:
.LVL600:
	pop	{r4, r5, r6, pc}
.L481:
	.align	2
.L480:
	.word	.LC14-(.LPIC220+4)
	.word	.LC140-(.LPIC221+4)
	.cfi_endproc
.LFE64:
	.fnend
	.size	luv_cancel, .-luv_cancel
	.section	.text.luv_thread_release_vm,"ax",%progbits
	.align	1
	.code	16
	.thumb_func
	.type	luv_thread_release_vm, %function
luv_thread_release_vm:
	.fnstart
.LFB241:
	.loc 4 50 0
	.cfi_startproc
	.save	{r3, lr}
	push	{r3, lr}
.LCFI85:
	.cfi_def_cfa_offset 8
	.cfi_offset 3, -8
	.cfi_offset 14, -4
.LVL601:
	.loc 4 51 0
	bl	lua_close
.LVL602:
	.loc 4 52 0
	@ sp needed for prologue
	pop	{r3, pc}
	.cfi_endproc
.LFE241:
	.fnend
	.size	luv_thread_release_vm, .-luv_thread_release_vm
	.section	.text.luv_thread_acquire_vm,"ax",%progbits
	.align	1
	.code	16
	.thumb_func
	.type	luv_thread_acquire_vm, %function
luv_thread_acquire_vm:
	.fnstart
.LFB240:
	.loc 4 32 0
	.cfi_startproc
	.save	{r4, r5, r6, lr}
	push	{r4, r5, r6, lr}
.LCFI86:
	.cfi_def_cfa_offset 16
	.cfi_offset 4, -16
	.cfi_offset 5, -12
	.cfi_offset 6, -8
	.cfi_offset 14, -4
	.loc 4 33 0
	bl	luaL_newstate
	mov	r4, r0
.LVL603:
	.loc 4 36 0
	bl	luaL_openlibs
.LVL604:
	.loc 4 39 0
	ldr	r1, .L484
	mov	r0, r4
	.loc 4 40 0
	mov	r6, #1
	.loc 4 39 0
.LPIC222:
	add	r1, pc
	bl	lua_getglobal
	.loc 4 40 0
	ldr	r2, .L484+4
	neg	r6, r6
	.loc 4 41 0
	mov	r5, #2
	neg	r5, r5
	.loc 4 40 0
	mov	r1, r6
.LPIC223:
	add	r2, pc
	mov	r0, r4
	bl	lua_getfield
	.loc 4 41 0
	mov	r2, r6
	mov	r1, r5
	mov	r0, r4
	bl	lua_rotate
	mov	r1, r5
	mov	r0, r4
	bl	lua_settop
	ldr	r1, .L484+8
	.loc 4 44 0
	mov	r0, r4
	mov	r2, #0
	.loc 4 41 0
.LPIC226:
	add	r1, pc
	.loc 4 44 0
	ldr	r1, [r1]
	bl	lua_pushcclosure
	.loc 4 45 0
	ldr	r2, .L484+12
	mov	r1, r5
	mov	r0, r4
.LPIC225:
	add	r2, pc
	bl	lua_setfield
	.loc 4 46 0
	mov	r0, r4
	mov	r1, r5
	bl	lua_settop
	.loc 4 48 0
	@ sp needed for prologue
	mov	r0, r4
.LVL605:
	pop	{r4, r5, r6, pc}
.L485:
	.align	2
.L484:
	.word	.LC141-(.LPIC222+4)
	.word	.LC142-(.LPIC223+4)
	.word	luaopen_luv(GOT_PREL)+(.-(.LPIC226+4))
	.word	.LC143-(.LPIC225+4)
	.cfi_endproc
.LFE240:
	.fnend
	.size	luv_thread_acquire_vm, .-luv_thread_acquire_vm
	.section	.text.luaopen_luv,"ax",%progbits
	.align	1
	.global	luaopen_luv
	.code	16
	.thumb_func
	.type	luaopen_luv, %function
luaopen_luv:
	.fnstart
.LFB303:
	.file 23 "jni/luv/luv/luv.c"
	.loc 23 460 0
	.cfi_startproc
	.save	{r4, r5, r6, r7, lr}
	push	{r4, r5, r6, r7, lr}
.LCFI87:
	.cfi_def_cfa_offset 20
	.cfi_offset 4, -20
	.cfi_offset 5, -16
	.cfi_offset 6, -12
	.cfi_offset 7, -8
	.cfi_offset 14, -4
.LVL606:
	.loc 23 465 0
	mov	r1, #228
	.loc 23 460 0
	.pad #44
	sub	sp, sp, #44
.LCFI88:
	.cfi_def_cfa_offset 64
	.loc 23 465 0
	lsl	r1, r1, #1
	.loc 23 460 0
	mov	r4, r0
	.loc 23 465 0
	bl	lua_newuserdata
.LVL607:
	mov	r6, r0
.LVL608:
	.loc 23 466 0
	bl	uv_loop_init
.LVL609:
	.loc 23 467 0
	sub	r5, r0, #0
	bge	.L487
	.loc 23 468 0
	mov	r0, r5
	bl	uv_err_name
	mov	r6, r0
.LVL610:
	mov	r0, r5
	bl	uv_strerror
	ldr	r1, .L492
	mov	r3, r0
	mov	r2, r6
	mov	r0, r4
.LPIC227:
	add	r1, pc
	bl	luaL_error
	mov	r4, r0
.LVL611:
	bl	.L488	@ far jump
.L493:
	.align	2
.L492:
	.word	.LC144-(.LPIC227+4)
.LVL612:
.L487:
	.loc 23 471 0
	ldr	r1, .L494+8
	mov	r0, r4
.LBB270:
.LBB271:
	.loc 23 416 0
	ldr	r7, .L494+12
.LBE271:
.LBE270:
	.loc 23 471 0
.LPIC228:
	add	r1, pc
	bl	lua_pushstring
	.loc 23 472 0
	mov	r1, #2
	mov	r2, #1
	mov	r0, r4
	neg	r1, r1
	bl	lua_rotate
	.loc 23 473 0
	mov	r0, r4
	ldr	r1, .L494+16
	bl	lua_rawset
.LBB273:
.LBB274:
	.loc 7 37 0
	ldr	r1, .L494+20
.LBE274:
.LBE273:
	.loc 23 476 0
	str	r4, [r6]
.LVL613:
.LBB276:
.LBB275:
	.loc 7 37 0
	mov	r0, r4
.LPIC229:
	add	r1, pc
	bl	luaL_newmetatable
	.loc 7 38 0
	ldr	r1, .L494+24
	.loc 7 39 0
	ldr	r6, .L494+28
.LVL614:
	.loc 7 38 0
	mov	r0, r4
.LPIC230:
	add	r1, pc
	mov	r2, #0
	.loc 7 39 0
.LPIC231:
	add	r6, pc
	.loc 7 38 0
	bl	lua_pushcclosure
	.loc 7 39 0
	mov	r1, #2
	mov	r2, r6
	mov	r0, r4
	neg	r1, r1
	bl	lua_setfield
	.loc 7 40 0
	mov	r1, #2
	mov	r0, r4
	neg	r1, r1
	bl	lua_settop
.LVL615:
.LBE275:
.LBE276:
.LBB277:
.LBB272:
	.loc 23 405 0
	mov	r1, #0
	mov	r2, r1
	mov	r0, r4
	bl	lua_createtable
	.loc 23 416 0
	ldr	r1, .L494+32
.LPIC233:
	add	r7, pc
	mov	r0, r4
.LPIC232:
	add	r1, pc
	bl	luaL_newmetatable
	mov	r1, r7
	mov	r0, r4
	mov	r2, #0
	bl	lua_pushcclosure
	mov	r1, #2
	neg	r1, r1
	mov	r0, r4
	mov	r2, r6
	bl	lua_setfield
	mov	r3, #136
	str	r3, [sp]
	mov	r0, r4
	ldr	r3, .L494+4
	ldr	r2, .L494
	bl	luaL_checkversion_
	mov	r0, r4
	mov	r1, #0
	mov	r2, #1
	bl	lua_createtable
	ldr	r3, .L494+36
	mov	r0, r4
	mov	r2, #0
.LPIC235:
	add	r3, pc
	mov	r1, r3
	add	r1, r1, #16
	str	r3, [sp, #8]
	bl	luaL_setfuncs
	ldr	r3, [sp, #8]
	ldr	r5, .L494+40
	mov	r0, r4
	add	r3, r3, #32
	mov	r1, r3
	mov	r2, #0
.LPIC237:
	add	r5, pc
	str	r3, [sp, #12]
	bl	luaL_setfuncs
	mov	r1, #2
	mov	r2, r5
	mov	r0, r4
	neg	r1, r1
	bl	lua_setfield
	mov	r0, r4
	mov	r1, #1
	bl	lua_pushboolean
	mov	r1, #3
	mov	r0, r4
	neg	r1, r1
	bl	lua_rawset
	ldr	r1, .L494+44
	mov	r0, r4
.LPIC238:
	add	r1, pc
	bl	luaL_newmetatable
	mov	r1, r7
	mov	r0, r4
	mov	r2, #0
	bl	lua_pushcclosure
	mov	r1, #2
	neg	r1, r1
	mov	r0, r4
	mov	r2, r6
	bl	lua_setfield
	mov	r3, #136
	str	r3, [sp]
	mov	r0, r4
	ldr	r3, .L494+4
	ldr	r2, .L494
	bl	luaL_checkversion_
	mov	r0, r4
	mov	r1, #0
	mov	r2, #2
	bl	lua_createtable
	ldr	r1, [sp, #8]
	mov	r0, r4
	mov	r2, #0
	add	r1, r1, #112
	bl	luaL_setfuncs
	mov	r0, r4
	ldr	r1, [sp, #12]
	mov	r2, #0
	bl	luaL_setfuncs
	mov	r1, #2
	mov	r2, r5
	mov	r0, r4
	neg	r1, r1
	bl	lua_setfield
	mov	r0, r4
	mov	r1, #1
	bl	lua_pushboolean
	mov	r1, #3
	mov	r0, r4
	neg	r1, r1
	bl	lua_rawset
	ldr	r1, .L494+48
	mov	r0, r4
.LPIC244:
	add	r1, pc
	bl	luaL_newmetatable
	mov	r1, r7
	mov	r0, r4
	mov	r2, #0
	bl	lua_pushcclosure
	mov	r1, #2
	neg	r1, r1
	mov	r0, r4
	mov	r2, r6
	bl	lua_setfield
	mov	r3, #136
	str	r3, [sp]
	mov	r0, r4
	ldr	r3, .L494+4
	ldr	r2, .L494
	bl	luaL_checkversion_
	mov	r0, r4
	mov	r1, #0
	mov	r2, #3
	bl	lua_createtable
	ldr	r3, .L494+52
	mov	r0, r4
	mov	r2, #0
.LPIC247:
	add	r3, pc
	mov	r1, r3
	add	r1, r1, #8
	str	r3, [sp, #8]
	bl	luaL_setfuncs
	mov	r0, r4
	ldr	r1, [sp, #12]
	mov	r2, #0
	bl	luaL_setfuncs
	mov	r1, #2
	mov	r2, r5
	mov	r0, r4
	neg	r1, r1
	bl	lua_setfield
	mov	r0, r4
	mov	r1, #1
	bl	lua_pushboolean
	mov	r1, #3
	mov	r0, r4
	neg	r1, r1
	bl	lua_rawset
	ldr	r1, .L494+56
	mov	r0, r4
.LPIC250:
	add	r1, pc
	bl	luaL_newmetatable
	mov	r1, r7
	mov	r0, r4
	mov	r2, #0
	bl	lua_pushcclosure
	mov	r1, #2
	neg	r1, r1
	mov	r0, r4
	mov	r2, r6
	bl	lua_setfield
	mov	r3, #136
	str	r3, [sp]
	mov	r0, r4
	ldr	r3, .L494+4
	ldr	r2, .L494
	bl	luaL_checkversion_
	mov	r0, r4
	mov	r1, #0
	mov	r2, #3
	bl	lua_createtable
	ldr	r1, [sp, #8]
	mov	r0, r4
	mov	r2, #0
	add	r1, r1, #40
	bl	luaL_setfuncs
	mov	r0, r4
	ldr	r1, [sp, #12]
	mov	r2, #0
	bl	luaL_setfuncs
	mov	r1, #2
	mov	r2, r5
	mov	r0, r4
	neg	r1, r1
	bl	lua_setfield
	mov	r0, r4
	mov	r1, #1
	bl	lua_pushboolean
	mov	r1, #3
	mov	r0, r4
	neg	r1, r1
	bl	lua_rawset
	ldr	r3, .L494+60
	mov	r0, r4
.LPIC256:
	add	r3, pc
	mov	r1, r3
	str	r3, [sp, #16]
	bl	luaL_newmetatable
	mov	r1, r7
	mov	r0, r4
	mov	r2, #0
	bl	lua_pushcclosure
	mov	r1, #2
	neg	r1, r1
	mov	r0, r4
	mov	r2, r6
	bl	lua_setfield
	mov	r3, #136
	str	r3, [sp]
	mov	r0, r4
	ldr	r3, .L494+4
	ldr	r2, .L494
	bl	luaL_checkversion_
	mov	r0, r4
	mov	r1, #0
	mov	r2, #9
	bl	lua_createtable
	mov	r0, r4
	ldr	r1, [sp, #12]
	mov	r2, #0
	bl	luaL_setfuncs
	mov	r0, r4
	ldr	r1, [sp, #12]
	mov	r2, #0
	bl	luaL_setfuncs
	mov	r1, #2
	mov	r2, r5
	mov	r0, r4
	neg	r1, r1
	bl	lua_setfield
	mov	r0, r4
	mov	r1, #1
	bl	lua_pushboolean
	mov	r1, #3
	mov	r0, r4
	neg	r1, r1
	bl	lua_rawset
	ldr	r1, .L494+64
	mov	r0, r4
.LPIC262:
	add	r1, pc
	bl	luaL_newmetatable
	mov	r1, r7
	mov	r0, r4
	mov	r2, #0
	bl	lua_pushcclosure
	mov	r1, #2
	neg	r1, r1
	mov	r0, r4
	mov	r2, r6
	bl	lua_setfield
	mov	r3, #136
	str	r3, [sp]
	mov	r0, r4
	ldr	r3, .L494+4
	ldr	r2, .L494
	bl	luaL_checkversion_
	mov	r0, r4
	mov	r1, #0
	mov	r2, #2
	bl	lua_createtable
	ldr	r1, [sp, #8]
	mov	r0, r4
	mov	r2, #0
	add	r1, r1, #72
	bl	luaL_setfuncs
	mov	r0, r4
	ldr	r1, [sp, #12]
	mov	r2, #0
	bl	luaL_setfuncs
	mov	r1, #2
	mov	r2, r5
	mov	r0, r4
	neg	r1, r1
	bl	lua_setfield
	mov	r0, r4
	mov	r1, #1
	bl	lua_pushboolean
	mov	r1, #3
	mov	r0, r4
	neg	r1, r1
	bl	lua_rawset
	ldr	r3, .L494+68
	mov	r0, r4
.LPIC268:
	add	r3, pc
	mov	r1, r3
	str	r3, [sp, #20]
	bl	luaL_newmetatable
	mov	r1, r7
	mov	r0, r4
	mov	r2, #0
	bl	lua_pushcclosure
	mov	r1, #2
	neg	r1, r1
	mov	r0, r4
	mov	r2, r6
	bl	lua_setfield
	mov	r3, #136
	str	r3, [sp]
	mov	r0, r4
	ldr	r3, .L494+4
	ldr	r2, .L494
	bl	luaL_checkversion_
	mov	r0, r4
	mov	r1, #0
	mov	r2, #8
	bl	lua_createtable
	ldr	r1, [sp, #8]
	mov	r0, r4
	mov	r2, #0
	add	r1, r1, #96
	bl	luaL_setfuncs
	mov	r0, r4
	ldr	r1, [sp, #12]
	mov	r2, #0
	bl	luaL_setfuncs
	mov	r1, #2
	mov	r2, r5
	mov	r0, r4
	neg	r1, r1
	bl	lua_setfield
	mov	r0, r4
	mov	r1, #1
	bl	lua_pushboolean
	mov	r1, #3
	mov	r0, r4
	neg	r1, r1
	bl	lua_rawset
	ldr	r1, .L494+72
	mov	r0, r4
.LPIC274:
	add	r1, pc
	bl	luaL_newmetatable
	mov	r1, r7
	mov	r0, r4
	mov	r2, #0
	bl	lua_pushcclosure
	mov	r1, #2
	neg	r1, r1
	mov	r0, r4
	mov	r2, r6
	bl	lua_setfield
	mov	r3, #136
	str	r3, [sp]
	mov	r0, r4
	ldr	r3, .L494+4
	ldr	r2, .L494
	bl	luaL_checkversion_
	mov	r0, r4
	mov	r1, #0
	mov	r2, #2
	bl	lua_createtable
	ldr	r3, .L494+76
	mov	r0, r4
	mov	r2, #0
.LPIC277:
	add	r3, pc
	mov	r1, r3
	add	r1, r1, #40
	str	r3, [sp, #8]
	bl	luaL_setfuncs
	mov	r0, r4
	ldr	r1, [sp, #12]
	mov	r2, #0
	b	.L495
.L496:
	.align	3
.L494:
	.word	0
	.word	1082093568
	.word	.LC145-(.LPIC228+4)
	.word	luv_handle_tostring-(.LPIC233+4)
	.word	-1001000
	.word	.LC14-(.LPIC229+4)
	.word	luv_req_tostring-(.LPIC230+4)
	.word	.LC146-(.LPIC231+4)
	.word	.LC29-(.LPIC232+4)
	.word	.LANCHOR0-(.LPIC235+4)
	.word	.LC147-(.LPIC237+4)
	.word	.LC30-(.LPIC238+4)
	.word	.LC31-(.LPIC244+4)
	.word	.LANCHOR1-(.LPIC247+4)
	.word	.LC32-(.LPIC250+4)
	.word	.LC33-(.LPIC256+4)
	.word	.LC34-(.LPIC262+4)
	.word	.LC35-(.LPIC268+4)
	.word	.LC36-(.LPIC274+4)
	.word	.LANCHOR2-(.LPIC277+4)
.L495:
	bl	luaL_setfuncs
	mov	r1, #2
	mov	r2, r5
	mov	r0, r4
	neg	r1, r1
	bl	lua_setfield
	mov	r0, r4
	mov	r1, #1
	bl	lua_pushboolean
	mov	r1, #3
	mov	r0, r4
	neg	r1, r1
	bl	lua_rawset
	ldr	r1, .L497+8
	mov	r0, r4
.LPIC280:
	add	r1, pc
	bl	luaL_newmetatable
	mov	r1, r7
	mov	r0, r4
	mov	r2, #0
	bl	lua_pushcclosure
	mov	r1, #2
	neg	r1, r1
	mov	r0, r4
	mov	r2, r6
	bl	lua_setfield
	mov	r3, #136
	str	r3, [sp]
	mov	r0, r4
	ldr	r3, .L497+4
	ldr	r2, .L497
	bl	luaL_checkversion_
	mov	r0, r4
	mov	r1, #0
	mov	r2, #2
	bl	lua_createtable
	ldr	r1, [sp, #8]
	mov	r0, r4
	mov	r2, #0
	add	r1, r1, #64
	bl	luaL_setfuncs
	mov	r0, r4
	ldr	r1, [sp, #12]
	mov	r2, #0
	bl	luaL_setfuncs
	mov	r1, #2
	mov	r2, r5
	mov	r0, r4
	neg	r1, r1
	bl	lua_setfield
	mov	r0, r4
	mov	r1, #1
	bl	lua_pushboolean
	mov	r1, #3
	mov	r0, r4
	neg	r1, r1
	bl	lua_rawset
	ldr	r1, .L497+12
	mov	r0, r4
.LPIC286:
	add	r1, pc
	bl	luaL_newmetatable
	mov	r1, r7
	mov	r0, r4
	mov	r2, #0
	bl	lua_pushcclosure
	mov	r1, #2
	neg	r1, r1
	mov	r0, r4
	mov	r2, r6
	bl	lua_setfield
	mov	r3, #136
	str	r3, [sp]
	mov	r0, r4
	ldr	r3, .L497+4
	ldr	r2, .L497
	bl	luaL_checkversion_
	mov	r0, r4
	mov	r1, #0
	mov	r2, #1
	bl	lua_createtable
	ldr	r1, [sp, #8]
	mov	r0, r4
	mov	r2, #0
	add	r1, r1, #88
	bl	luaL_setfuncs
	mov	r0, r4
	ldr	r1, [sp, #12]
	mov	r2, #0
	bl	luaL_setfuncs
	mov	r1, #2
	mov	r2, r5
	mov	r0, r4
	neg	r1, r1
	bl	lua_setfield
	mov	r0, r4
	mov	r1, #1
	bl	lua_pushboolean
	mov	r1, #3
	mov	r0, r4
	neg	r1, r1
	bl	lua_rawset
	ldr	r3, .L497+16
	mov	r0, r4
.LPIC292:
	add	r3, pc
	mov	r1, r3
	str	r3, [sp, #24]
	bl	luaL_newmetatable
	mov	r1, r7
	mov	r0, r4
	mov	r2, #0
	bl	lua_pushcclosure
	mov	r1, #2
	neg	r1, r1
	mov	r0, r4
	mov	r2, r6
	bl	lua_setfield
	mov	r3, #136
	str	r3, [sp]
	mov	r0, r4
	ldr	r3, .L497+4
	ldr	r2, .L497
	bl	luaL_checkversion_
	mov	r0, r4
	mov	r1, #0
	mov	r2, #11
	bl	lua_createtable
	ldr	r3, [sp, #8]
	mov	r0, r4
	mov	r2, #0
	add	r3, r3, #104
	mov	r1, r3
	str	r3, [sp, #28]
	bl	luaL_setfuncs
	mov	r0, r4
	ldr	r1, [sp, #12]
	mov	r2, #0
	bl	luaL_setfuncs
	mov	r1, #2
	mov	r2, r5
	mov	r0, r4
	neg	r1, r1
	bl	lua_setfield
	mov	r0, r4
	mov	r1, #1
	bl	lua_pushboolean
	mov	r1, #3
	mov	r0, r4
	neg	r1, r1
	bl	lua_rawset
	ldr	r3, .L497+20
	mov	r0, r4
.LPIC298:
	add	r3, pc
	mov	r1, r3
	str	r3, [sp, #32]
	bl	luaL_newmetatable
	mov	r1, r7
	mov	r0, r4
	mov	r2, #0
	bl	lua_pushcclosure
	mov	r1, #2
	neg	r1, r1
	mov	r0, r4
	mov	r2, r6
	bl	lua_setfield
	mov	r3, #136
	str	r3, [sp]
	mov	r0, r4
	ldr	r3, .L497+4
	ldr	r2, .L497
	bl	luaL_checkversion_
	mov	r0, r4
	mov	r1, #0
	mov	r2, #9
	bl	lua_createtable
	ldr	r1, .L497+24
	mov	r0, r4
	mov	r2, #0
.LPIC301:
	add	r1, pc
	add	r1, r1, #72
	bl	luaL_setfuncs
	mov	r0, r4
	ldr	r1, [sp, #12]
	mov	r2, #0
	bl	luaL_setfuncs
	mov	r1, #2
	mov	r2, r5
	mov	r0, r4
	neg	r1, r1
	bl	lua_setfield
	mov	r0, r4
	mov	r1, #1
	bl	lua_pushboolean
	mov	r1, #3
	mov	r0, r4
	neg	r1, r1
	bl	lua_rawset
	ldr	r1, .L497+28
	mov	r0, r4
.LPIC304:
	add	r1, pc
	bl	luaL_newmetatable
	mov	r1, r7
	mov	r0, r4
	mov	r2, #0
	bl	lua_pushcclosure
	mov	r1, #2
	neg	r1, r1
	mov	r0, r4
	mov	r2, r6
	bl	lua_setfield
	mov	r3, #136
	str	r3, [sp]
	mov	r0, r4
	ldr	r3, .L497+4
	ldr	r2, .L497
	bl	luaL_checkversion_
	mov	r0, r4
	mov	r1, #0
	mov	r2, #5
	bl	lua_createtable
	ldr	r3, .L497+32
	mov	r0, r4
	mov	r2, #0
.LPIC307:
	add	r3, pc
	mov	r1, r3
	add	r1, r1, #24
	str	r3, [sp, #8]
	bl	luaL_setfuncs
	mov	r0, r4
	ldr	r1, [sp, #12]
	mov	r2, #0
	bl	luaL_setfuncs
	mov	r1, #2
	mov	r2, r5
	mov	r0, r4
	neg	r1, r1
	bl	lua_setfield
	mov	r0, r4
	mov	r1, #1
	bl	lua_pushboolean
	mov	r1, #3
	mov	r0, r4
	neg	r1, r1
	bl	lua_rawset
	ldr	r3, .L497+36
	mov	r0, r4
.LPIC310:
	add	r3, pc
	mov	r1, r3
	str	r3, [sp, #36]
	bl	luaL_newmetatable
	mov	r1, r7
	mov	r0, r4
	mov	r2, #0
	bl	lua_pushcclosure
	mov	r1, #2
	neg	r1, r1
	mov	r0, r4
	mov	r2, r6
	bl	lua_setfield
	mov	r3, #136
	str	r3, [sp]
	mov	r0, r4
	ldr	r3, .L497+4
	ldr	r2, .L497
	bl	luaL_checkversion_
	mov	r0, r4
	mov	r1, #0
	mov	r2, #2
	bl	lua_createtable
	ldr	r1, [sp, #8]
	mov	r0, r4
	mov	r2, #0
	add	r1, r1, #72
	bl	luaL_setfuncs
	mov	r0, r4
	ldr	r1, [sp, #12]
	mov	r2, #0
	bl	luaL_setfuncs
	mov	r1, #2
	mov	r2, r5
	mov	r0, r4
	neg	r1, r1
	bl	lua_setfield
	mov	r0, r4
	mov	r1, #1
	bl	lua_pushboolean
	mov	r1, #3
	mov	r0, r4
	neg	r1, r1
	bl	lua_rawset
	ldr	r1, .L497+40
	mov	r0, r4
.LPIC316:
	add	r1, pc
	bl	luaL_newmetatable
	mov	r1, r7
	mov	r0, r4
	mov	r2, #0
	bl	lua_pushcclosure
	mov	r1, #2
	neg	r1, r1
	mov	r0, r4
	mov	r2, r6
	bl	lua_setfield
	mov	r3, #136
	str	r3, [sp]
	mov	r0, r4
	ldr	r3, .L497+4
	ldr	r2, .L497
	bl	luaL_checkversion_
	mov	r0, r4
	mov	r1, #0
	mov	r2, #13
	bl	lua_createtable
	ldr	r1, [sp, #8]
	mov	r0, r4
	mov	r2, #0
	add	r1, r1, #96
	bl	luaL_setfuncs
	mov	r0, r4
	ldr	r1, [sp, #12]
	mov	r2, #0
	bl	luaL_setfuncs
	mov	r1, #2
	mov	r2, r5
	mov	r0, r4
	neg	r1, r1
	bl	lua_setfield
	mov	r0, r4
	mov	r1, #1
	bl	lua_pushboolean
	mov	r1, #3
	mov	r0, r4
	neg	r1, r1
	bl	lua_rawset
	ldr	r1, .L497+44
	mov	r0, r4
.LPIC322:
	add	r1, pc
	bl	luaL_newmetatable
	mov	r1, r7
	mov	r0, r4
	mov	r2, #0
	bl	lua_pushcclosure
	mov	r1, #2
	neg	r1, r1
	mov	r0, r4
	mov	r2, r6
	ldr	r7, .L497+48
	bl	lua_setfield
	mov	r3, #136
	str	r3, [sp]
	mov	r0, r4
	ldr	r3, .L497+4
	ldr	r2, .L497
	bl	luaL_checkversion_
.LPIC325:
	add	r7, pc
	mov	r0, r4
	mov	r1, #0
	mov	r2, #2
	bl	lua_createtable
	mov	r1, r7
	add	r1, r1, #80
	mov	r0, r4
	mov	r2, #0
	bl	luaL_setfuncs
	mov	r0, r4
	ldr	r1, [sp, #12]
	mov	r2, #0
	bl	luaL_setfuncs
	mov	r1, #2
	mov	r2, r5
	mov	r0, r4
	neg	r1, r1
	bl	lua_setfield
	mov	r0, r4
	mov	r1, #1
	bl	lua_pushboolean
	mov	r1, #3
	mov	r0, r4
	neg	r1, r1
	bl	lua_rawset
	.loc 23 418 0
	mov	r0, r4
	ldr	r1, .L497+52
	ldr	r2, [sp, #16]
	bl	lua_setfield
	.loc 23 420 0
	mov	r1, #0
	mov	r2, r1
	mov	r0, r4
	bl	lua_createtable
	.loc 23 422 0
	ldr	r1, .L497+52
	ldr	r2, [sp, #20]
	mov	r0, r4
	bl	lua_getfield
	.loc 23 423 0
	mov	r1, #1
	neg	r1, r1
	mov	r2, r5
	mov	r0, r4
	bl	lua_getfield
	.loc 23 424 0
	mov	r2, #0
	mov	r0, r4
	ldr	r1, [sp, #28]
	bl	luaL_setfuncs
	.loc 23 425 0
	mov	r1, #2
	mov	r0, r4
	neg	r1, r1
	bl	lua_settop
	.loc 23 426 0
	mov	r0, r4
	mov	r1, #1
	bl	lua_pushboolean
	.loc 23 427 0
	mov	r1, #3
	mov	r0, r4
	neg	r1, r1
	bl	lua_rawset
	b	.L498
.L499:
	.align	3
.L497:
	.word	0
	.word	1082093568
	.word	.LC37-(.LPIC280+4)
	.word	.LC38-(.LPIC286+4)
	.word	.LC39-(.LPIC292+4)
	.word	.LC40-(.LPIC298+4)
	.word	.LANCHOR3-(.LPIC301+4)
	.word	.LC41-(.LPIC304+4)
	.word	.LANCHOR4-(.LPIC307+4)
	.word	.LC42-(.LPIC310+4)
	.word	.LC43-(.LPIC316+4)
	.word	.LC44-(.LPIC322+4)
	.word	.LANCHOR5-(.LPIC325+4)
	.word	-1001000
.L498:
	.loc 23 429 0
	ldr	r1, .L500+48
	ldr	r2, [sp, #32]
	mov	r0, r4
	bl	lua_getfield
	.loc 23 430 0
	mov	r1, #1
	neg	r1, r1
	mov	r2, r5
	mov	r0, r4
	bl	lua_getfield
	.loc 23 431 0
	mov	r2, #0
	mov	r0, r4
	ldr	r1, [sp, #28]
	bl	luaL_setfuncs
	.loc 23 432 0
	mov	r1, #2
	mov	r0, r4
	neg	r1, r1
	bl	lua_settop
	.loc 23 433 0
	mov	r0, r4
	mov	r1, #1
	bl	lua_pushboolean
	.loc 23 434 0
	mov	r1, #3
	mov	r0, r4
	neg	r1, r1
	bl	lua_rawset
	.loc 23 436 0
	ldr	r1, .L500+48
	ldr	r2, [sp, #36]
	mov	r0, r4
	bl	lua_getfield
	.loc 23 437 0
	mov	r1, #1
	neg	r1, r1
	mov	r2, r5
	mov	r0, r4
	bl	lua_getfield
	.loc 23 438 0
	mov	r2, #0
	mov	r0, r4
	ldr	r1, [sp, #28]
	bl	luaL_setfuncs
	.loc 23 439 0
	mov	r1, #2
	mov	r0, r4
	neg	r1, r1
	bl	lua_settop
	.loc 23 440 0
	mov	r0, r4
	mov	r1, #1
	bl	lua_pushboolean
	.loc 23 441 0
	mov	r1, #3
	mov	r0, r4
	neg	r1, r1
	bl	lua_rawset
	.loc 23 443 0
	ldr	r1, .L500+48
	mov	r0, r4
	ldr	r2, [sp, #24]
	bl	lua_setfield
.LBE272:
.LBE277:
	.loc 23 480 0
	mov	r3, #136
	str	r3, [sp]
	mov	r0, r4
	ldr	r3, .L500+4
	ldr	r2, .L500
	bl	luaL_checkversion_
	mov	r0, r4
	mov	r1, #0
	mov	r2, #149
	bl	lua_createtable
	mov	r1, r7
	add	r1, r1, #104
	mov	r0, r4
	mov	r2, #0
	bl	luaL_setfuncs
.LVL616:
.LBB278:
.LBB279:
	.loc 2 21 0
	mov	r1, #0
	mov	r2, r1
	mov	r0, r4
	bl	lua_createtable
	.loc 2 25 0
	mov	r2, #0
	mov	r3, #0
	mov	r0, r4
	bl	lua_pushinteger
	.loc 2 26 0
	ldr	r2, .L500+52
	mov	r1, #2
	neg	r1, r1
.LPIC340:
	add	r2, pc
	mov	r0, r4
	bl	lua_setfield
	.loc 2 29 0
	mov	r2, #1
	mov	r3, #0
	mov	r0, r4
	bl	lua_pushinteger
	.loc 2 30 0
	ldr	r2, .L500+56
	mov	r1, #2
	neg	r1, r1
.LPIC341:
	add	r2, pc
	mov	r0, r4
	bl	lua_setfield
	.loc 2 33 0
	mov	r2, #2
	mov	r3, #0
	mov	r0, r4
	bl	lua_pushinteger
	.loc 2 34 0
	ldr	r2, .L500+60
	mov	r1, #2
	neg	r1, r1
.LPIC342:
	add	r2, pc
	mov	r0, r4
	bl	lua_setfield
	.loc 2 37 0
	ldr	r2, .L500+8
	ldr	r3, .L500+12
	mov	r0, r4
	bl	lua_pushinteger
	.loc 2 38 0
	ldr	r2, .L500+64
	mov	r1, #2
	neg	r1, r1
.LPIC343:
	add	r2, pc
	mov	r0, r4
	bl	lua_setfield
	.loc 2 41 0
	mov	r2, #64
	mov	r3, #0
	mov	r0, r4
	bl	lua_pushinteger
	.loc 2 42 0
	ldr	r2, .L500+68
	mov	r1, #2
	neg	r1, r1
.LPIC344:
	add	r2, pc
	mov	r0, r4
	bl	lua_setfield
	.loc 2 49 0
	mov	r2, #128
	mov	r3, #0
	mov	r0, r4
	bl	lua_pushinteger
	.loc 2 50 0
	ldr	r2, .L500+72
	mov	r1, #2
	neg	r1, r1
.LPIC345:
	add	r2, pc
	mov	r0, r4
	bl	lua_setfield
	.loc 2 57 0
	ldr	r2, .L500+16
	ldr	r3, .L500+20
	mov	r0, r4
	bl	lua_pushinteger
	.loc 2 58 0
	ldr	r2, .L500+76
	mov	r1, #2
	neg	r1, r1
.LPIC346:
	add	r2, pc
	mov	r0, r4
	bl	lua_setfield
	.loc 2 61 0
	ldr	r2, .L500+24
	ldr	r3, .L500+28
	mov	r0, r4
	bl	lua_pushinteger
	.loc 2 62 0
	ldr	r2, .L500+80
	mov	r1, #2
	neg	r1, r1
.LPIC347:
	add	r2, pc
	mov	r0, r4
	bl	lua_setfield
	.loc 2 69 0
	ldr	r2, .L500+32
	ldr	r3, .L500+36
	mov	r0, r4
	bl	lua_pushinteger
	.loc 2 70 0
	ldr	r2, .L500+84
	mov	r1, #2
	neg	r1, r1
.LPIC348:
	add	r2, pc
	mov	r0, r4
	bl	lua_setfield
	.loc 2 73 0
	ldr	r2, .L500+40
	ldr	r3, .L500+44
	mov	r0, r4
	bl	lua_pushinteger
	.loc 2 74 0
	ldr	r2, .L500+88
	mov	r1, #2
	neg	r1, r1
.LPIC349:
	add	r2, pc
	mov	r0, r4
	bl	lua_setfield
	.loc 2 79 0
	mov	r2, #1
	mov	r3, #0
	mov	r0, r4
	bl	lua_pushinteger
	.loc 2 80 0
	ldr	r2, .L500+92
	mov	r1, #2
	neg	r1, r1
.LPIC350:
	add	r2, pc
	mov	r0, r4
	bl	lua_setfield
	.loc 2 83 0
	mov	r2, #2
	mov	r3, #0
	mov	r0, r4
	bl	lua_pushinteger
	.loc 2 84 0
	ldr	r2, .L500+96
	mov	r1, #2
	neg	r1, r1
.LPIC351:
	add	r2, pc
	mov	r0, r4
	bl	lua_setfield
	.loc 2 87 0
	mov	r2, #5
	mov	r3, #0
	mov	r0, r4
	bl	lua_pushinteger
	.loc 2 88 0
	ldr	r2, .L500+100
	mov	r1, #2
	neg	r1, r1
.LPIC352:
	add	r2, pc
	mov	r0, r4
	bl	lua_setfield
	.loc 2 91 0
	mov	r2, #3
	mov	r3, #0
	mov	r0, r4
	bl	lua_pushinteger
	.loc 2 92 0
	ldr	r2, .L500+104
	mov	r1, #2
	neg	r1, r1
.LPIC353:
	add	r2, pc
	mov	r0, r4
	bl	lua_setfield
	.loc 2 95 0
	mov	r2, #4
	mov	r3, #0
	mov	r0, r4
	bl	lua_pushinteger
	.loc 2 96 0
	ldr	r2, .L500+108
	mov	r1, #2
	neg	r1, r1
.LPIC354:
	add	r2, pc
	mov	r0, r4
	bl	lua_setfield
	.loc 2 101 0
	mov	r2, #1
	mov	r3, #0
	mov	r0, r4
	bl	lua_pushinteger
	.loc 2 102 0
	ldr	r2, .L500+112
	mov	r1, #2
	neg	r1, r1
.LPIC355:
	add	r2, pc
	mov	r0, r4
	bl	lua_setfield
	.loc 2 105 0
	mov	r2, #2
	mov	r3, #0
	mov	r0, r4
	bl	lua_pushinteger
	.loc 2 106 0
	ldr	r2, .L500+116
	mov	r1, #2
	neg	r1, r1
.LPIC356:
	add	r2, pc
	mov	r0, r4
	bl	lua_setfield
	.loc 2 109 0
	mov	r2, #10
	mov	r3, #0
	mov	r0, r4
	bl	lua_pushinteger
	.loc 2 110 0
	ldr	r2, .L500+120
	mov	r1, #2
	neg	r1, r1
.LPIC357:
	add	r2, pc
	mov	r0, r4
	bl	lua_setfield
	.loc 2 113 0
	mov	r2, #4
	mov	r3, #0
	mov	r0, r4
	bl	lua_pushinteger
	.loc 2 114 0
	ldr	r2, .L500+124
	mov	r1, #2
	neg	r1, r1
.LPIC358:
	add	r2, pc
	mov	r0, r4
	bl	lua_setfield
	.loc 2 117 0
	mov	r2, #16
	mov	r3, #0
	mov	r0, r4
	bl	lua_pushinteger
	.loc 2 118 0
	ldr	r2, .L500+128
	mov	r1, #2
	neg	r1, r1
.LPIC359:
	add	r2, pc
	mov	r0, r4
	bl	lua_setfield
	.loc 2 121 0
	mov	r2, #9
	mov	r3, #0
	mov	r0, r4
	bl	lua_pushinteger
	.loc 2 122 0
	ldr	r2, .L500+132
	mov	r1, #2
	neg	r1, r1
.LPIC360:
	add	r2, pc
	mov	r0, r4
	bl	lua_setfield
	.loc 2 125 0
	mov	r2, #3
	mov	r3, #0
	mov	r0, r4
	bl	lua_pushinteger
	.loc 2 126 0
	ldr	r2, .L500+136
	mov	r1, #2
	neg	r1, r1
.LPIC361:
	add	r2, pc
	mov	r0, r4
	bl	lua_setfield
	.loc 2 129 0
	mov	r2, #8
	mov	r3, #0
	mov	r0, r4
	bl	lua_pushinteger
	.loc 2 130 0
	ldr	r2, .L500+140
	mov	r1, #2
	neg	r1, r1
.LPIC362:
	add	r2, pc
	mov	r0, r4
	bl	lua_setfield
	.loc 2 133 0
	mov	r2, #5
	mov	r3, #0
	mov	r0, r4
	bl	lua_pushinteger
	.loc 2 134 0
	ldr	r2, .L500+144
	mov	r1, #2
	neg	r1, r1
.LPIC363:
	add	r2, pc
	mov	r0, r4
	bl	lua_setfield
	.loc 2 137 0
	mov	r2, #17
	mov	r3, #0
	mov	r0, r4
	bl	lua_pushinteger
	.loc 2 138 0
	ldr	r2, .L500+148
	mov	r1, #2
	neg	r1, r1
.LPIC364:
	add	r2, pc
	mov	r0, r4
	bl	lua_setfield
	.loc 2 143 0
	ldr	r2, .L500+8
	ldr	r3, .L500+12
	mov	r0, r4
	bl	lua_pushinteger
	.loc 2 144 0
	ldr	r2, .L500+152
	mov	r1, #2
	neg	r1, r1
.LPIC365:
	add	r2, pc
	mov	r0, r4
	bl	lua_setfield
	.loc 2 147 0
	ldr	r2, .L500+24
	ldr	r3, .L500+28
	mov	r0, r4
	bl	lua_pushinteger
	.loc 2 148 0
	ldr	r2, .L500+156
	mov	r1, #2
	neg	r1, r1
.LPIC366:
	add	r2, pc
	mov	r0, r4
	bl	lua_setfield
	.loc 2 151 0
	ldr	r2, .L500+16
	ldr	r3, .L500+20
	mov	r0, r4
	bl	lua_pushinteger
	.loc 2 152 0
	ldr	r2, .L500+160
	mov	r1, #2
	neg	r1, r1
.LPIC367:
	add	r2, pc
	mov	r0, r4
	bl	lua_setfield
	.loc 2 155 0
	mov	r2, #4
	mov	r3, #0
	mov	r0, r4
	bl	lua_pushinteger
	.loc 2 156 0
	ldr	r2, .L500+164
	mov	r1, #2
	neg	r1, r1
.LPIC368:
	add	r2, pc
	mov	r0, r4
	bl	lua_setfield
	.loc 2 159 0
	mov	r2, #1
	mov	r3, #0
	mov	r0, r4
	bl	lua_pushinteger
	.loc 2 160 0
	ldr	r2, .L500+168
	mov	r1, #2
	neg	r1, r1
	b	.L501
.L502:
	.align	3
.L500:
	.word	0
	.word	1082093568
	.word	1024
	.word	0
	.word	256
	.word	0
	.word	2048
	.word	0
	.word	4096
	.word	0
	.word	512
	.word	0
	.word	-1001000
	.word	.LC148-(.LPIC340+4)
	.word	.LC149-(.LPIC341+4)
	.word	.LC150-(.LPIC342+4)
	.word	.LC151-(.LPIC343+4)
	.word	.LC152-(.LPIC344+4)
	.word	.LC153-(.LPIC345+4)
	.word	.LC154-(.LPIC346+4)
	.word	.LC155-(.LPIC347+4)
	.word	.LC156-(.LPIC348+4)
	.word	.LC157-(.LPIC349+4)
	.word	.LC158-(.LPIC350+4)
	.word	.LC159-(.LPIC351+4)
	.word	.LC160-(.LPIC352+4)
	.word	.LC161-(.LPIC353+4)
	.word	.LC162-(.LPIC354+4)
	.word	.LC163-(.LPIC355+4)
	.word	.LC164-(.LPIC356+4)
	.word	.LC165-(.LPIC357+4)
	.word	.LC166-(.LPIC358+4)
	.word	.LC167-(.LPIC359+4)
	.word	.LC168-(.LPIC360+4)
	.word	.LC169-(.LPIC361+4)
	.word	.LC170-(.LPIC362+4)
	.word	.LC171-(.LPIC363+4)
	.word	.LC172-(.LPIC364+4)
	.word	.LC173-(.LPIC365+4)
	.word	.LC174-(.LPIC366+4)
	.word	.LC175-(.LPIC367+4)
	.word	.LC176-(.LPIC368+4)
	.word	.LC177-(.LPIC369+4)
.L501:
.LPIC369:
	add	r2, pc
	mov	r0, r4
	bl	lua_setfield
	.loc 2 163 0
	mov	r2, #8
	mov	r3, #0
	mov	r0, r4
	bl	lua_pushinteger
	.loc 2 164 0
	ldr	r2, .L503
	mov	r1, #2
	neg	r1, r1
.LPIC370:
	add	r2, pc
	mov	r0, r4
	bl	lua_setfield
	.loc 2 169 0
	mov	r2, #1
	mov	r3, #0
	mov	r0, r4
	bl	lua_pushinteger
	.loc 2 170 0
	ldr	r2, .L503+4
	mov	r1, #2
	neg	r1, r1
.LPIC371:
	add	r2, pc
	mov	r0, r4
	bl	lua_setfield
	.loc 2 173 0
	mov	r2, #2
	mov	r3, #0
	mov	r0, r4
	bl	lua_pushinteger
	.loc 2 174 0
	ldr	r2, .L503+8
	mov	r1, #2
	neg	r1, r1
.LPIC372:
	add	r2, pc
	mov	r0, r4
	bl	lua_setfield
	.loc 2 177 0
	mov	r2, #3
	mov	r3, #0
	mov	r0, r4
	bl	lua_pushinteger
	.loc 2 178 0
	ldr	r2, .L503+12
	mov	r1, #2
	neg	r1, r1
.LPIC373:
	add	r2, pc
	mov	r0, r4
	bl	lua_setfield
	.loc 2 181 0
	mov	r2, #4
	mov	r3, #0
	mov	r0, r4
	bl	lua_pushinteger
	.loc 2 182 0
	ldr	r2, .L503+16
	mov	r1, #2
	neg	r1, r1
.LPIC374:
	add	r2, pc
	mov	r0, r4
	bl	lua_setfield
	.loc 2 185 0
	mov	r2, #5
	mov	r3, #0
	mov	r0, r4
	bl	lua_pushinteger
	.loc 2 186 0
	ldr	r2, .L503+20
	mov	r1, #2
	neg	r1, r1
.LPIC375:
	add	r2, pc
	mov	r0, r4
	bl	lua_setfield
	.loc 2 189 0
	mov	r2, #6
	mov	r3, #0
	mov	r0, r4
	bl	lua_pushinteger
	.loc 2 190 0
	ldr	r2, .L503+24
	mov	r1, #2
	neg	r1, r1
.LPIC376:
	add	r2, pc
	mov	r0, r4
	bl	lua_setfield
	.loc 2 193 0
	mov	r2, #6
	mov	r3, #0
	mov	r0, r4
	bl	lua_pushinteger
	.loc 2 194 0
	ldr	r2, .L503+28
	mov	r1, #2
	neg	r1, r1
.LPIC377:
	add	r2, pc
	mov	r0, r4
	bl	lua_setfield
	.loc 2 197 0
	mov	r2, #7
	mov	r3, #0
	mov	r0, r4
	bl	lua_pushinteger
	.loc 2 198 0
	ldr	r2, .L503+32
	mov	r1, #2
	neg	r1, r1
.LPIC378:
	add	r2, pc
	mov	r0, r4
	bl	lua_setfield
	.loc 2 201 0
	mov	r2, #8
	mov	r3, #0
	mov	r0, r4
	bl	lua_pushinteger
	.loc 2 202 0
	ldr	r2, .L503+36
	mov	r1, #2
	neg	r1, r1
.LPIC379:
	add	r2, pc
	mov	r0, r4
	bl	lua_setfield
	.loc 2 205 0
	mov	r2, #9
	mov	r3, #0
	mov	r0, r4
	bl	lua_pushinteger
	.loc 2 206 0
	ldr	r2, .L503+40
	mov	r1, #2
	neg	r1, r1
.LPIC380:
	add	r2, pc
	mov	r0, r4
	bl	lua_setfield
	.loc 2 209 0
	mov	r2, #10
	mov	r3, #0
	mov	r0, r4
	bl	lua_pushinteger
	.loc 2 210 0
	ldr	r2, .L503+44
	mov	r1, #2
	neg	r1, r1
.LPIC381:
	add	r2, pc
	mov	r0, r4
	bl	lua_setfield
	.loc 2 213 0
	mov	r2, #11
	mov	r3, #0
	mov	r0, r4
	bl	lua_pushinteger
	.loc 2 214 0
	ldr	r2, .L503+48
	mov	r1, #2
	neg	r1, r1
.LPIC382:
	add	r2, pc
	mov	r0, r4
	bl	lua_setfield
	.loc 2 217 0
	mov	r2, #12
	mov	r3, #0
	mov	r0, r4
	bl	lua_pushinteger
	.loc 2 218 0
	ldr	r2, .L503+52
	mov	r1, #2
	neg	r1, r1
.LPIC383:
	add	r2, pc
	mov	r0, r4
	bl	lua_setfield
	.loc 2 221 0
	mov	r2, #13
	mov	r3, #0
	mov	r0, r4
	bl	lua_pushinteger
	.loc 2 222 0
	ldr	r2, .L503+56
	mov	r1, #2
	neg	r1, r1
.LPIC384:
	add	r2, pc
	mov	r0, r4
	bl	lua_setfield
	.loc 2 225 0
	mov	r2, #14
	mov	r3, #0
	mov	r0, r4
	bl	lua_pushinteger
	.loc 2 226 0
	ldr	r2, .L503+60
	mov	r1, #2
	neg	r1, r1
.LPIC385:
	add	r2, pc
	mov	r0, r4
	bl	lua_setfield
	.loc 2 229 0
	mov	r2, #15
	mov	r3, #0
	mov	r0, r4
	bl	lua_pushinteger
	.loc 2 230 0
	ldr	r2, .L503+64
	mov	r1, #2
	neg	r1, r1
.LPIC386:
	add	r2, pc
	mov	r0, r4
	bl	lua_setfield
	.loc 2 233 0
	mov	r2, #17
	mov	r3, #0
	mov	r0, r4
	bl	lua_pushinteger
	.loc 2 234 0
	ldr	r2, .L503+68
	mov	r1, #2
	neg	r1, r1
.LPIC387:
	add	r2, pc
	mov	r0, r4
	bl	lua_setfield
	.loc 2 237 0
	mov	r2, #16
	mov	r3, #0
	mov	r0, r4
	bl	lua_pushinteger
	.loc 2 238 0
	ldr	r2, .L503+72
	mov	r1, #2
	neg	r1, r1
.LPIC388:
	add	r2, pc
	mov	r0, r4
	bl	lua_setfield
	.loc 2 241 0
	mov	r2, #18
	mov	r3, #0
	mov	r0, r4
	bl	lua_pushinteger
	.loc 2 242 0
	ldr	r2, .L503+76
	mov	r1, #2
	neg	r1, r1
.LPIC389:
	add	r2, pc
	mov	r0, r4
	bl	lua_setfield
	.loc 2 245 0
	mov	r2, #19
	mov	r3, #0
	mov	r0, r4
	bl	lua_pushinteger
	.loc 2 246 0
	ldr	r2, .L503+80
	mov	r1, #2
	neg	r1, r1
.LPIC390:
	add	r2, pc
	mov	r0, r4
	bl	lua_setfield
	.loc 2 249 0
	mov	r2, #20
	mov	r3, #0
	mov	r0, r4
	bl	lua_pushinteger
	.loc 2 250 0
	ldr	r2, .L503+84
	mov	r1, #2
	neg	r1, r1
.LPIC391:
	add	r2, pc
	mov	r0, r4
	bl	lua_setfield
	.loc 2 257 0
	mov	r2, #21
	mov	r3, #0
	mov	r0, r4
	bl	lua_pushinteger
	.loc 2 258 0
	ldr	r2, .L503+88
	mov	r1, #2
	neg	r1, r1
.LPIC392:
	add	r2, pc
	mov	r0, r4
	bl	lua_setfield
	.loc 2 261 0
	mov	r2, #22
	mov	r3, #0
	mov	r0, r4
	bl	lua_pushinteger
	.loc 2 262 0
	ldr	r2, .L503+92
	mov	r1, #2
	neg	r1, r1
.LPIC393:
	add	r2, pc
	mov	r0, r4
	bl	lua_setfield
	.loc 2 265 0
	mov	r2, #23
	mov	r3, #0
	mov	r0, r4
	bl	lua_pushinteger
	.loc 2 266 0
	ldr	r2, .L503+96
	mov	r1, #2
	neg	r1, r1
.LPIC394:
	add	r2, pc
	mov	r0, r4
	bl	lua_setfield
	.loc 2 269 0
	mov	r2, #24
	mov	r3, #0
	mov	r0, r4
	bl	lua_pushinteger
	.loc 2 270 0
	ldr	r2, .L503+100
	mov	r1, #2
	neg	r1, r1
.LPIC395:
	add	r2, pc
	mov	r0, r4
	bl	lua_setfield
	.loc 2 273 0
	mov	r2, #25
	mov	r3, #0
	mov	r0, r4
	bl	lua_pushinteger
	.loc 2 274 0
	ldr	r2, .L503+104
	mov	r1, #2
	neg	r1, r1
.LPIC396:
	add	r2, pc
	mov	r0, r4
	bl	lua_setfield
	.loc 2 277 0
	mov	r2, #26
	mov	r3, #0
	mov	r0, r4
	bl	lua_pushinteger
	.loc 2 278 0
	ldr	r2, .L503+108
	mov	r1, #2
	neg	r1, r1
.LPIC397:
	add	r2, pc
	mov	r0, r4
	bl	lua_setfield
	.loc 2 281 0
	mov	r2, #27
	mov	r3, #0
	mov	r0, r4
	bl	lua_pushinteger
	.loc 2 282 0
	ldr	r2, .L503+112
	mov	r1, #2
	neg	r1, r1
.LPIC398:
	add	r2, pc
	mov	r0, r4
	bl	lua_setfield
	.loc 2 285 0
	mov	r2, #28
	mov	r3, #0
	mov	r0, r4
	bl	lua_pushinteger
	.loc 2 286 0
	ldr	r2, .L503+116
	mov	r1, #2
	neg	r1, r1
.LPIC399:
	add	r2, pc
	mov	r0, r4
	bl	lua_setfield
	.loc 2 289 0
	mov	r2, #29
	mov	r3, #0
	mov	r0, r4
	bl	lua_pushinteger
	.loc 2 290 0
	ldr	r2, .L503+120
	mov	r1, #2
	neg	r1, r1
.LPIC400:
	add	r2, pc
	mov	r0, r4
	bl	lua_setfield
	.loc 2 293 0
	mov	r2, #29
	mov	r3, #0
	mov	r0, r4
	bl	lua_pushinteger
	.loc 2 294 0
	ldr	r2, .L503+124
	mov	r1, #2
	neg	r1, r1
.LPIC401:
	add	r2, pc
	mov	r0, r4
	bl	lua_setfield
	.loc 2 301 0
	mov	r2, #30
	mov	r3, #0
	mov	r0, r4
	bl	lua_pushinteger
	.loc 2 302 0
	ldr	r2, .L503+128
	mov	r1, #2
	neg	r1, r1
.LPIC402:
	add	r2, pc
	mov	r0, r4
	bl	lua_setfield
	.loc 2 305 0
	mov	r2, #31
	mov	r3, #0
	mov	r0, r4
	bl	lua_pushinteger
	.loc 2 306 0
	ldr	r2, .L503+132
	mov	r1, #2
	mov	r0, r4
.LPIC403:
	add	r2, pc
	neg	r1, r1
	bl	lua_setfield
.LBE279:
.LBE278:
	.loc 23 482 0
	ldr	r2, .L503+136
	mov	r1, #2
	mov	r0, r4
.LPIC404:
	add	r2, pc
	neg	r1, r1
	bl	lua_setfield
.LVL617:
.LBB280:
.LBB281:
	.loc 4 284 0
	ldr	r1, .L503+140
	mov	r0, r4
.LPIC405:
	add	r1, pc
	bl	luaL_newmetatable
	.loc 4 285 0
	ldr	r1, .L503+144
	mov	r0, r4
	mov	r2, #0
.LPIC406:
	add	r1, pc
	bl	lua_pushcclosure
	.loc 4 286 0
	mov	r1, #2
	mov	r0, r4
	neg	r1, r1
	mov	r2, r6
	bl	lua_setfield
	.loc 4 287 0
	ldr	r1, .L503+148
	mov	r0, r4
	mov	r2, #0
.LPIC408:
	add	r1, pc
	bl	lua_pushcclosure
	.loc 4 288 0
	ldr	r2, .L503+152
	mov	r1, #2
	mov	r0, r4
.LPIC409:
	add	r2, pc
	neg	r1, r1
	bl	lua_setfield
	.loc 4 289 0
	ldr	r1, .L503+156
	mov	r0, r4
	mov	r2, #0
.LPIC410:
	add	r1, pc
	bl	lua_pushcclosure
	.loc 4 290 0
	ldr	r2, .L503+160
	mov	r1, #2
	mov	r0, r4
.LPIC411:
	add	r2, pc
	neg	r1, r1
	bl	lua_setfield
	.loc 4 291 0
	mov	r1, #0
	mov	r2, r1
	mov	r0, r4
	bl	lua_createtable
	.loc 4 292 0
	ldr	r1, .L503+164
	mov	r0, r4
	mov	r2, #0
.LPIC412:
	add	r1, pc
	add	r1, r1, #24
	bl	luaL_setfuncs
	.loc 4 293 0
	mov	r1, #2
	mov	r2, r5
	b	.L504
.L505:
	.align	2
.L503:
	.word	.LC178-(.LPIC370+4)
	.word	.LC179-(.LPIC371+4)
	.word	.LC180-(.LPIC372+4)
	.word	.LC181-(.LPIC373+4)
	.word	.LC182-(.LPIC374+4)
	.word	.LC183-(.LPIC375+4)
	.word	.LC184-(.LPIC376+4)
	.word	.LC185-(.LPIC377+4)
	.word	.LC186-(.LPIC378+4)
	.word	.LC187-(.LPIC379+4)
	.word	.LC188-(.LPIC380+4)
	.word	.LC189-(.LPIC381+4)
	.word	.LC190-(.LPIC382+4)
	.word	.LC191-(.LPIC383+4)
	.word	.LC192-(.LPIC384+4)
	.word	.LC193-(.LPIC385+4)
	.word	.LC194-(.LPIC386+4)
	.word	.LC195-(.LPIC387+4)
	.word	.LC196-(.LPIC388+4)
	.word	.LC197-(.LPIC389+4)
	.word	.LC198-(.LPIC390+4)
	.word	.LC199-(.LPIC391+4)
	.word	.LC200-(.LPIC392+4)
	.word	.LC201-(.LPIC393+4)
	.word	.LC202-(.LPIC394+4)
	.word	.LC203-(.LPIC395+4)
	.word	.LC204-(.LPIC396+4)
	.word	.LC205-(.LPIC397+4)
	.word	.LC206-(.LPIC398+4)
	.word	.LC207-(.LPIC399+4)
	.word	.LC208-(.LPIC400+4)
	.word	.LC209-(.LPIC401+4)
	.word	.LC210-(.LPIC402+4)
	.word	.LC211-(.LPIC403+4)
	.word	.LC212-(.LPIC404+4)
	.word	.LC10-(.LPIC405+4)
	.word	luv_thread_tostring-(.LPIC406+4)
	.word	luv_thread_equal-(.LPIC408+4)
	.word	.LC213-(.LPIC409+4)
	.word	luv_thread_gc-(.LPIC410+4)
	.word	.LC214-(.LPIC411+4)
	.word	.LANCHOR6-(.LPIC412+4)
.L504:
	mov	r0, r4
	neg	r1, r1
	bl	lua_setfield
	.loc 4 294 0
	mov	r1, #2
	mov	r0, r4
	neg	r1, r1
	bl	lua_settop
	.loc 4 296 0
	ldr	r3, .L506
.LPIC414:
	add	r3, pc
	ldr	r2, [r3]
	cmp	r2, #0
	bne	.L489
	.loc 4 296 0 is_stmt 0 discriminator 1
	ldr	r2, .L506+4
.LPIC416:
	add	r2, pc
	str	r2, [r3]
.L489:
	.loc 4 297 0 is_stmt 1
	ldr	r3, .L506+8
.LPIC417:
	add	r3, pc
	ldr	r2, [r3, #4]
	cmp	r2, #0
	bne	.L490
	.loc 4 297 0 is_stmt 0 discriminator 1
	ldr	r2, .L506+12
.LPIC419:
	add	r2, pc
	str	r2, [r3, #4]
.L490:
.LVL618:
.LBE281:
.LBE280:
.LBB282:
.LBB283:
	.loc 8 210 0 is_stmt 1
	ldr	r1, .L506+16
	mov	r0, r4
.LPIC420:
	add	r1, pc
	bl	luaL_newmetatable
	.loc 8 211 0
	ldr	r1, .L506+20
	mov	r0, r4
	mov	r2, #0
.LPIC421:
	add	r1, pc
	bl	lua_pushcclosure
	.loc 8 212 0
	ldr	r2, .L506+24
	mov	r1, #2
	mov	r0, r4
.LPIC422:
	add	r2, pc
	neg	r1, r1
	bl	lua_setfield
	.loc 8 213 0
	ldr	r1, .L506+28
	mov	r0, r4
	mov	r2, #0
.LPIC423:
	add	r1, pc
	bl	lua_pushcclosure
	.loc 8 214 0
	ldr	r2, .L506+32
	mov	r1, #2
	mov	r0, r4
.LPIC424:
	add	r2, pc
	neg	r1, r1
	bl	lua_setfield
	.loc 8 215 0
	mov	r1, #0
	mov	r0, r4
	mov	r2, r1
	bl	lua_createtable
	.loc 8 216 0
	ldr	r1, .L506+36
	mov	r0, r4
	mov	r2, #0
.LPIC425:
	add	r1, pc
	add	r1, r1, #48
	bl	luaL_setfuncs
	.loc 8 217 0
	ldr	r2, .L506+40
	mov	r1, #2
	mov	r0, r4
.LPIC426:
	add	r2, pc
	neg	r1, r1
	bl	lua_setfield
	.loc 8 218 0
	mov	r1, #2
	mov	r0, r4
	neg	r1, r1
	bl	lua_settop
	.loc 8 220 0
	ldr	r0, .L506+44
	mov	r4, #1
.LVL619:
.LPIC427:
	add	r0, pc
	ldr	r3, [r0, #8]
	cmp	r3, #0
	bne	.L488
	.loc 8 221 0
	str	r4, [r0, #8]
	.loc 8 222 0
	add	r0, r0, #12
	bl	uv_key_create
.L488:
.LBE283:
.LBE282:
	.loc 23 488 0
	add	sp, sp, #44
	mov	r0, r4
	@ sp needed for prologue
	pop	{r4, r5, r6, r7, pc}
.L507:
	.align	2
.L506:
	.word	.LANCHOR7-(.LPIC414+4)
	.word	luv_thread_acquire_vm-(.LPIC416+4)
	.word	.LANCHOR7-(.LPIC417+4)
	.word	luv_thread_release_vm-(.LPIC419+4)
	.word	.LC25-(.LPIC420+4)
	.word	luv_work_ctx_tostring-(.LPIC421+4)
	.word	.LC146-(.LPIC422+4)
	.word	luv_work_ctx_gc-(.LPIC423+4)
	.word	.LC214-(.LPIC424+4)
	.word	.LANCHOR6-(.LPIC425+4)
	.word	.LC147-(.LPIC426+4)
	.word	.LANCHOR7-(.LPIC427+4)
	.cfi_endproc
.LFE303:
	.fnend
	.size	luaopen_luv, .-luaopen_luv
	.section	.text.thread_dump,"ax",%progbits
	.align	1
	.global	thread_dump
	.code	16
	.thumb_func
	.type	thread_dump, %function
thread_dump:
	.fnstart
.LFB245:
	.loc 4 144 0
	.cfi_startproc
	.save	{r3, lr}
	push	{r3, lr}
.LCFI89:
	.cfi_def_cfa_offset 8
	.cfi_offset 3, -8
	.cfi_offset 14, -4
.LVL620:
	.loc 4 146 0
	mov	r0, r3
.LVL621:
	bl	luaL_addlstring
.LVL622:
	.loc 4 148 0
	@ sp needed for prologue
	mov	r0, #0
	pop	{r3, pc}
	.cfi_endproc
.LFE245:
	.fnend
	.size	thread_dump, .-thread_dump
	.section	.text.luv_status,"ax",%progbits
	.align	1
	.code	16
	.thumb_func
	.type	luv_status, %function
luv_status:
	.fnstart
.LFB40:
	.loc 6 49 0
	.cfi_startproc
	.save	{r4, lr}
	push	{r4, lr}
.LCFI90:
	.cfi_def_cfa_offset 8
	.cfi_offset 4, -8
	.cfi_offset 14, -4
.LVL623:
	.loc 6 49 0
	mov	r4, r0
	.loc 6 50 0
	cmp	r1, #0
	bge	.L510
.LVL624:
.LBB286:
.LBB287:
	.loc 6 51 0
	mov	r0, r1
.LVL625:
	bl	uv_err_name
.LVL626:
	mov	r1, r0
	mov	r0, r4
	bl	lua_pushstring
	b	.L509
.LVL627:
.L510:
.LBE287:
.LBE286:
	.loc 6 54 0
	bl	lua_pushnil
.LVL628:
.L509:
	.loc 6 56 0
	@ sp needed for prologue
.LVL629:
	pop	{r4, pc}
	.cfi_endproc
.LFE40:
	.fnend
	.size	luv_status, .-luv_status
	.section	.text.luv_setgid,"ax",%progbits
	.align	1
	.code	16
	.thumb_func
	.type	luv_setgid, %function
luv_setgid:
	.fnstart
.LFB290:
	.loc 11 302 0
	.cfi_startproc
	.save	{r4, lr}
	push	{r4, lr}
.LCFI91:
	.cfi_def_cfa_offset 8
	.cfi_offset 4, -8
	.cfi_offset 14, -4
.LVL630:
	.loc 11 303 0
	mov	r1, #1
	.loc 11 302 0
	mov	r4, r0
	.loc 11 303 0
	bl	luaL_checkinteger
.LVL631:
	.loc 11 304 0
	bl	setgid
.LVL632:
	.loc 11 305 0
	add	r0, r0, #1
	bne	.L513
.LVL633:
.LBB290:
.LBB291:
	.loc 11 306 0
	ldr	r1, .L514
	mov	r0, r4
.LPIC430:
	add	r1, pc
	bl	luaL_error
.LVL634:
.L513:
.LBE291:
.LBE290:
	.loc 11 309 0
	mov	r0, #0
	@ sp needed for prologue
.LVL635:
	pop	{r4, pc}
.L515:
	.align	2
.L514:
	.word	.LC215-(.LPIC430+4)
	.cfi_endproc
.LFE290:
	.fnend
	.size	luv_setgid, .-luv_setgid
	.section	.text.luv_setuid,"ax",%progbits
	.align	1
	.code	16
	.thumb_func
	.type	luv_setuid, %function
luv_setuid:
	.fnstart
.LFB289:
	.loc 11 293 0
	.cfi_startproc
	.save	{r4, lr}
	push	{r4, lr}
.LCFI92:
	.cfi_def_cfa_offset 8
	.cfi_offset 4, -8
	.cfi_offset 14, -4
.LVL636:
	.loc 11 294 0
	mov	r1, #1
	.loc 11 293 0
	mov	r4, r0
	.loc 11 294 0
	bl	luaL_checkinteger
.LVL637:
	.loc 11 295 0
	bl	setuid
.LVL638:
	.loc 11 296 0
	add	r0, r0, #1
	bne	.L517
.LVL639:
.LBB294:
.LBB295:
	.loc 11 297 0
	ldr	r1, .L518
	mov	r0, r4
.LPIC431:
	add	r1, pc
	bl	luaL_error
.LVL640:
.L517:
.LBE295:
.LBE294:
	.loc 11 300 0
	mov	r0, #0
	@ sp needed for prologue
.LVL641:
	pop	{r4, pc}
.L519:
	.align	2
.L518:
	.word	.LC216-(.LPIC431+4)
	.cfi_endproc
.LFE289:
	.fnend
	.size	luv_setuid, .-luv_setuid
	.section	.text.luv_af_string_to_num,"ax",%progbits
	.align	1
	.code	16
	.thumb_func
	.type	luv_af_string_to_num, %function
luv_af_string_to_num:
	.fnstart
.LFB292:
	.loc 2 311 0
	.cfi_startproc
	.save	{r4, lr}
	push	{r4, lr}
.LCFI93:
	.cfi_def_cfa_offset 8
	.cfi_offset 4, -8
	.cfi_offset 14, -4
.LVL642:
	.loc 2 311 0
	mov	r4, r0
	.loc 2 312 0
	sub	r3, r0, #0
	beq	.L521
	.loc 2 314 0
	ldr	r1, .L534
.LPIC432:
	add	r1, pc
	bl	strcmp
.LVL643:
	.loc 2 314 0 is_stmt 0 discriminator 1
	mov	r3, #1
	.loc 2 314 0
	cmp	r0, #0
	beq	.L521
	.loc 2 317 0 is_stmt 1
	ldr	r1, .L534+4
	mov	r0, r4
.LPIC433:
	add	r1, pc
	bl	strcmp
	.loc 2 317 0 is_stmt 0 discriminator 1
	mov	r3, #2
	.loc 2 317 0
	cmp	r0, #0
	beq	.L521
	.loc 2 320 0 is_stmt 1
	ldr	r1, .L534+8
	mov	r0, r4
.LPIC434:
	add	r1, pc
	bl	strcmp
	.loc 2 320 0 is_stmt 0 discriminator 1
	mov	r3, #10
	.loc 2 320 0
	cmp	r0, #0
	beq	.L521
	.loc 2 323 0 is_stmt 1
	ldr	r1, .L534+12
	mov	r0, r4
.LPIC435:
	add	r1, pc
	bl	strcmp
	.loc 2 323 0 is_stmt 0 discriminator 1
	mov	r3, #4
	.loc 2 323 0
	cmp	r0, #0
	beq	.L521
.LVL644:
.LBB298:
.LBB299:
	.loc 2 326 0 is_stmt 1
	ldr	r1, .L534+16
	mov	r0, r4
.LPIC436:
	add	r1, pc
	bl	strcmp
	.loc 2 326 0 is_stmt 0 discriminator 1
	mov	r3, #16
	.loc 2 326 0
	cmp	r0, #0
	beq	.L521
	.loc 2 329 0 is_stmt 1
	ldr	r1, .L534+20
	mov	r0, r4
.LPIC437:
	add	r1, pc
	bl	strcmp
	.loc 2 329 0 is_stmt 0 discriminator 1
	mov	r3, #9
	.loc 2 329 0
	cmp	r0, #0
	beq	.L521
	.loc 2 332 0 is_stmt 1
	ldr	r1, .L534+24
	mov	r0, r4
.LPIC438:
	add	r1, pc
	bl	strcmp
	.loc 2 332 0 is_stmt 0 discriminator 1
	mov	r3, #3
	.loc 2 332 0
	cmp	r0, #0
	beq	.L521
	.loc 2 335 0 is_stmt 1
	ldr	r1, .L534+28
	mov	r0, r4
.LPIC439:
	add	r1, pc
	bl	strcmp
	.loc 2 335 0 is_stmt 0 discriminator 1
	mov	r3, #8
	.loc 2 335 0
	cmp	r0, #0
	beq	.L521
	.loc 2 338 0 is_stmt 1
	ldr	r1, .L534+32
	mov	r0, r4
.LPIC440:
	add	r1, pc
	bl	strcmp
	.loc 2 338 0 is_stmt 0 discriminator 1
	mov	r3, #5
	.loc 2 338 0
	cmp	r0, #0
	beq	.L521
	.loc 2 341 0 is_stmt 1
	ldr	r1, .L534+36
	mov	r0, r4
.LPIC441:
	add	r1, pc
	bl	strcmp
	.loc 2 343 0
	mov	r3, #0
	.loc 2 341 0
	cmp	r0, r3
	bne	.L521
	.loc 2 341 0 is_stmt 0 discriminator 1
	mov	r3, #17
.LVL645:
.L521:
.LBE299:
.LBE298:
	.loc 2 344 0 is_stmt 1
	mov	r0, r3
	@ sp needed for prologue
.LVL646:
	pop	{r4, pc}
.L535:
	.align	2
.L534:
	.word	.LC0-(.LPIC432+4)
	.word	.LC1-(.LPIC433+4)
	.word	.LC2-(.LPIC434+4)
	.word	.LC3-(.LPIC435+4)
	.word	.LC4-(.LPIC436+4)
	.word	.LC5-(.LPIC437+4)
	.word	.LC6-(.LPIC438+4)
	.word	.LC7-(.LPIC439+4)
	.word	.LC8-(.LPIC440+4)
	.word	.LC9-(.LPIC441+4)
	.cfi_endproc
.LFE292:
	.fnend
	.size	luv_af_string_to_num, .-luv_af_string_to_num
	.section	.text.luv_sig_string_to_num,"ax",%progbits
	.align	1
	.code	16
	.thumb_func
	.type	luv_sig_string_to_num, %function
luv_sig_string_to_num:
	.fnstart
.LFB298:
	.loc 2 471 0
	.cfi_startproc
	.save	{r3, r4, r5, lr}
	push	{r3, r4, r5, lr}
.LCFI94:
	.cfi_def_cfa_offset 16
	.cfi_offset 3, -16
	.cfi_offset 4, -12
	.cfi_offset 5, -8
	.cfi_offset 14, -4
.LVL647:
	.loc 2 471 0
	mov	r4, r0
	.loc 2 472 0
	sub	r5, r0, #0
	bne	.LCB8228
	b	.L537	@long jump
.LCB8228:
	.loc 2 474 0
	ldr	r1, .L573
	.loc 2 474 0 is_stmt 0 discriminator 1
	mov	r5, #1
	.loc 2 474 0
.LPIC442:
	add	r1, pc
	bl	strcmp
.LVL648:
	cmp	r0, #0
	bne	.LCB8236
	b	.L537	@long jump
.LCB8236:
	.loc 2 477 0 is_stmt 1
	ldr	r1, .L573+4
	mov	r0, r4
	.loc 2 477 0 is_stmt 0 discriminator 1
	mov	r5, #2
	.loc 2 477 0
.LPIC443:
	add	r1, pc
	bl	strcmp
	cmp	r0, #0
	bne	.LCB8243
	b	.L537	@long jump
.LCB8243:
	.loc 2 480 0 is_stmt 1
	ldr	r1, .L573+8
	mov	r0, r4
	.loc 2 480 0 is_stmt 0 discriminator 1
	mov	r5, #3
	.loc 2 480 0
.LPIC444:
	add	r1, pc
	bl	strcmp
	cmp	r0, #0
	bne	.LCB8250
	b	.L537	@long jump
.LCB8250:
	.loc 2 483 0 is_stmt 1
	ldr	r1, .L573+12
	mov	r0, r4
	.loc 2 483 0 is_stmt 0 discriminator 1
	mov	r5, #4
	.loc 2 483 0
.LPIC445:
	add	r1, pc
	bl	strcmp
	cmp	r0, #0
	bne	.LCB8257
	b	.L537	@long jump
.LCB8257:
.LVL649:
.LBB302:
.LBB303:
	.loc 2 486 0 is_stmt 1
	ldr	r1, .L573+16
	mov	r0, r4
	.loc 2 486 0 is_stmt 0 discriminator 1
	mov	r5, #5
	.loc 2 486 0
.LPIC446:
	add	r1, pc
	bl	strcmp
	cmp	r0, #0
	bne	.LCB8267
	b	.L537	@long jump
.LCB8267:
	.loc 2 489 0 is_stmt 1
	ldr	r1, .L573+20
	mov	r0, r4
	.loc 2 489 0 is_stmt 0 discriminator 1
	mov	r5, #6
	.loc 2 489 0
.LPIC447:
	add	r1, pc
	bl	strcmp
	cmp	r0, #0
	bne	.LCB8274
	b	.L537	@long jump
.LCB8274:
	.loc 2 492 0 is_stmt 1
	ldr	r1, .L573+24
	mov	r0, r4
.LPIC448:
	add	r1, pc
	bl	strcmp
	cmp	r0, #0
	bne	.LCB8280
	b	.L537	@long jump
.LCB8280:
	.loc 2 495 0
	ldr	r1, .L573+28
	mov	r0, r4
	.loc 2 495 0 is_stmt 0 discriminator 1
	mov	r5, #7
	.loc 2 495 0
.LPIC449:
	add	r1, pc
	bl	strcmp
	cmp	r0, #0
	bne	.LCB8287
	b	.L537	@long jump
.LCB8287:
	.loc 2 498 0 is_stmt 1
	ldr	r1, .L573+32
	mov	r0, r4
	.loc 2 498 0 is_stmt 0 discriminator 1
	mov	r5, #8
	.loc 2 498 0
.LPIC450:
	add	r1, pc
	bl	strcmp
	cmp	r0, #0
	bne	.LCB8294
	b	.L537	@long jump
.LCB8294:
	.loc 2 501 0 is_stmt 1
	ldr	r1, .L573+36
	mov	r0, r4
	.loc 2 501 0 is_stmt 0 discriminator 1
	mov	r5, #9
	.loc 2 501 0
.LPIC451:
	add	r1, pc
	bl	strcmp
	cmp	r0, #0
	bne	.LCB8301
	b	.L537	@long jump
.LCB8301:
	.loc 2 504 0 is_stmt 1
	ldr	r1, .L573+40
	mov	r0, r4
	.loc 2 504 0 is_stmt 0 discriminator 1
	mov	r5, #10
	.loc 2 504 0
.LPIC452:
	add	r1, pc
	bl	strcmp
	cmp	r0, #0
	bne	.LCB8308
	b	.L537	@long jump
.LCB8308:
	.loc 2 507 0 is_stmt 1
	ldr	r1, .L573+44
	mov	r0, r4
	.loc 2 507 0 is_stmt 0 discriminator 1
	mov	r5, #11
	.loc 2 507 0
.LPIC453:
	add	r1, pc
	bl	strcmp
	cmp	r0, #0
	bne	.LCB8315
	b	.L537	@long jump
.LCB8315:
	.loc 2 510 0 is_stmt 1
	ldr	r1, .L573+48
	mov	r0, r4
	.loc 2 510 0 is_stmt 0 discriminator 1
	mov	r5, #12
	.loc 2 510 0
.LPIC454:
	add	r1, pc
	bl	strcmp
	cmp	r0, #0
	bne	.LCB8322
	b	.L537	@long jump
.LCB8322:
	.loc 2 513 0 is_stmt 1
	ldr	r1, .L573+52
	mov	r0, r4
	.loc 2 513 0 is_stmt 0 discriminator 1
	mov	r5, #13
	.loc 2 513 0
.LPIC455:
	add	r1, pc
	bl	strcmp
	cmp	r0, #0
	bne	.LCB8329
	b	.L537	@long jump
.LCB8329:
	.loc 2 516 0 is_stmt 1
	ldr	r1, .L573+56
	mov	r0, r4
	.loc 2 516 0 is_stmt 0 discriminator 1
	mov	r5, #14
	.loc 2 516 0
.LPIC456:
	add	r1, pc
	bl	strcmp
	cmp	r0, #0
	bne	.LCB8336
	b	.L537	@long jump
.LCB8336:
	.loc 2 519 0 is_stmt 1
	ldr	r1, .L573+60
	mov	r0, r4
	.loc 2 519 0 is_stmt 0 discriminator 1
	mov	r5, #15
	.loc 2 519 0
.LPIC457:
	add	r1, pc
	bl	strcmp
	cmp	r0, #0
	bne	.LCB8343
	b	.L537	@long jump
.LCB8343:
	.loc 2 522 0 is_stmt 1
	ldr	r1, .L573+64
	mov	r0, r4
	.loc 2 522 0 is_stmt 0 discriminator 1
	mov	r5, #17
	.loc 2 522 0
.LPIC458:
	add	r1, pc
	bl	strcmp
	cmp	r0, #0
	bne	.LCB8350
	b	.L537	@long jump
.LCB8350:
	.loc 2 525 0 is_stmt 1
	ldr	r1, .L573+68
	mov	r0, r4
	.loc 2 525 0 is_stmt 0 discriminator 1
	mov	r5, #16
	.loc 2 525 0
.LPIC459:
	add	r1, pc
	bl	strcmp
	cmp	r0, #0
	bne	.LCB8357
	b	.L537	@long jump
.LCB8357:
	.loc 2 528 0 is_stmt 1
	ldr	r1, .L573+72
	mov	r0, r4
	.loc 2 528 0 is_stmt 0 discriminator 1
	mov	r5, #18
	.loc 2 528 0
.LPIC460:
	add	r1, pc
	bl	strcmp
	cmp	r0, #0
	beq	.L537
	.loc 2 531 0 is_stmt 1
	ldr	r1, .L573+76
	mov	r0, r4
	.loc 2 531 0 is_stmt 0 discriminator 1
	mov	r5, #19
	.loc 2 531 0
.LPIC461:
	add	r1, pc
	bl	strcmp
	cmp	r0, #0
	beq	.L537
	.loc 2 534 0 is_stmt 1
	ldr	r1, .L573+80
	mov	r0, r4
	.loc 2 534 0 is_stmt 0 discriminator 1
	mov	r5, #20
	.loc 2 534 0
.LPIC462:
	add	r1, pc
	bl	strcmp
	cmp	r0, #0
	beq	.L537
	.loc 2 540 0 is_stmt 1
	ldr	r1, .L573+84
	mov	r0, r4
	.loc 2 540 0 is_stmt 0 discriminator 1
	mov	r5, #21
	.loc 2 540 0
.LPIC463:
	add	r1, pc
	bl	strcmp
	cmp	r0, #0
	beq	.L537
	.loc 2 543 0 is_stmt 1
	ldr	r1, .L573+88
	mov	r0, r4
	.loc 2 543 0 is_stmt 0 discriminator 1
	mov	r5, #22
	.loc 2 543 0
.LPIC464:
	add	r1, pc
	bl	strcmp
	cmp	r0, #0
	beq	.L537
	.loc 2 546 0 is_stmt 1
	ldr	r1, .L573+92
	mov	r0, r4
	.loc 2 546 0 is_stmt 0 discriminator 1
	mov	r5, #23
	.loc 2 546 0
.LPIC465:
	add	r1, pc
	bl	strcmp
	cmp	r0, #0
	beq	.L537
	.loc 2 549 0 is_stmt 1
	ldr	r1, .L573+96
	mov	r0, r4
	.loc 2 549 0 is_stmt 0 discriminator 1
	mov	r5, #24
	.loc 2 549 0
.LPIC466:
	add	r1, pc
	bl	strcmp
	cmp	r0, #0
	beq	.L537
	.loc 2 552 0 is_stmt 1
	ldr	r1, .L573+100
	mov	r0, r4
	.loc 2 552 0 is_stmt 0 discriminator 1
	mov	r5, #25
	.loc 2 552 0
.LPIC467:
	add	r1, pc
	bl	strcmp
	cmp	r0, #0
	beq	.L537
	.loc 2 555 0 is_stmt 1
	ldr	r1, .L573+104
	mov	r0, r4
	.loc 2 555 0 is_stmt 0 discriminator 1
	mov	r5, #26
	.loc 2 555 0
.LPIC468:
	add	r1, pc
	bl	strcmp
	cmp	r0, #0
	beq	.L537
	.loc 2 558 0 is_stmt 1
	ldr	r1, .L573+108
	mov	r0, r4
	.loc 2 558 0 is_stmt 0 discriminator 1
	mov	r5, #27
	.loc 2 558 0
.LPIC469:
	add	r1, pc
	bl	strcmp
	cmp	r0, #0
	beq	.L537
	.loc 2 561 0 is_stmt 1
	ldr	r1, .L573+112
	mov	r0, r4
	.loc 2 561 0 is_stmt 0 discriminator 1
	mov	r5, #28
	.loc 2 561 0
.LPIC470:
	add	r1, pc
	bl	strcmp
	cmp	r0, #0
	beq	.L537
	.loc 2 564 0 is_stmt 1
	ldr	r1, .L573+116
	mov	r0, r4
	.loc 2 564 0 is_stmt 0 discriminator 1
	mov	r5, #29
	.loc 2 564 0
.LPIC471:
	add	r1, pc
	bl	strcmp
	cmp	r0, #0
	beq	.L537
	.loc 2 567 0 is_stmt 1
	ldr	r1, .L573+120
	mov	r0, r4
.LPIC472:
	add	r1, pc
	bl	strcmp
	cmp	r0, #0
	beq	.L537
	.loc 2 573 0
	ldr	r1, .L573+124
	mov	r0, r4
	.loc 2 573 0 is_stmt 0 discriminator 1
	mov	r5, #30
	.loc 2 573 0
.LPIC473:
	add	r1, pc
	bl	strcmp
	cmp	r0, #0
	beq	.L537
	.loc 2 576 0 is_stmt 1
	ldr	r1, .L573+128
	mov	r0, r4
	.loc 2 578 0
	mov	r5, #0
	.loc 2 576 0
.LPIC474:
	add	r1, pc
	bl	strcmp
	cmp	r0, r5
	bne	.L537
	.loc 2 576 0 is_stmt 0 discriminator 1
	mov	r5, #31
.LVL650:
.L537:
.LBE303:
.LBE302:
	.loc 2 579 0 is_stmt 1
	mov	r0, r5
	@ sp needed for prologue
.LVL651:
	pop	{r3, r4, r5, pc}
.L574:
	.align	2
.L573:
	.word	.LC217-(.LPIC442+4)
	.word	.LC218-(.LPIC443+4)
	.word	.LC219-(.LPIC444+4)
	.word	.LC220-(.LPIC445+4)
	.word	.LC221-(.LPIC446+4)
	.word	.LC222-(.LPIC447+4)
	.word	.LC223-(.LPIC448+4)
	.word	.LC224-(.LPIC449+4)
	.word	.LC225-(.LPIC450+4)
	.word	.LC226-(.LPIC451+4)
	.word	.LC227-(.LPIC452+4)
	.word	.LC228-(.LPIC453+4)
	.word	.LC229-(.LPIC454+4)
	.word	.LC230-(.LPIC455+4)
	.word	.LC231-(.LPIC456+4)
	.word	.LC232-(.LPIC457+4)
	.word	.LC233-(.LPIC458+4)
	.word	.LC234-(.LPIC459+4)
	.word	.LC235-(.LPIC460+4)
	.word	.LC236-(.LPIC461+4)
	.word	.LC237-(.LPIC462+4)
	.word	.LC238-(.LPIC463+4)
	.word	.LC239-(.LPIC464+4)
	.word	.LC240-(.LPIC465+4)
	.word	.LC241-(.LPIC466+4)
	.word	.LC242-(.LPIC467+4)
	.word	.LC243-(.LPIC468+4)
	.word	.LC244-(.LPIC469+4)
	.word	.LC245-(.LPIC470+4)
	.word	.LC246-(.LPIC471+4)
	.word	.LC247-(.LPIC472+4)
	.word	.LC248-(.LPIC473+4)
	.word	.LC249-(.LPIC474+4)
	.cfi_endproc
.LFE298:
	.fnend
	.size	luv_sig_string_to_num, .-luv_sig_string_to_num
	.section	.text.luv_signal_start,"ax",%progbits
	.align	1
	.code	16
	.thumb_func
	.type	luv_signal_start, %function
luv_signal_start:
	.fnstart
.LFB113:
	.loc 17 43 0
	.cfi_startproc
	.save	{r4, r5, r6, lr}
	push	{r4, r5, r6, lr}
.LCFI95:
	.cfi_def_cfa_offset 16
	.cfi_offset 4, -16
	.cfi_offset 5, -12
	.cfi_offset 6, -8
	.cfi_offset 14, -4
.LVL652:
.LBB304:
.LBB305:
	.loc 17 20 0
	ldr	r2, .L584
	mov	r1, #1
.LBE305:
.LBE304:
	.loc 17 43 0
	mov	r6, r0
.LBB309:
.LBB308:
	.loc 17 20 0
.LPIC475:
	add	r2, pc
	bl	luaL_checkudata
.LVL653:
	.loc 17 19 0
	ldr	r3, [r0, #8]
	.loc 17 20 0
	mov	r5, r0
.LVL654:
	.loc 17 19 0
	cmp	r3, #16
	bne	.L576
	.loc 17 21 0
	ldr	r3, [r0]
	cmp	r3, #0
	bne	.L577
.LVL655:
.L576:
.LBB306:
.LBB307:
	.loc 17 21 0 is_stmt 0 discriminator 1
	ldr	r2, .L584+4
	mov	r0, r6
.LVL656:
	mov	r1, #1
.LPIC476:
	add	r2, pc
	bl	luaL_argerror
.LVL657:
.L577:
.LBE307:
.LBE306:
.LBE308:
.LBE309:
	.loc 17 46 0 is_stmt 1
	mov	r1, #2
	mov	r0, r6
	bl	lua_isnumber
	.loc 17 47 0
	mov	r1, #2
	.loc 17 46 0
	mov	r4, r0
	.loc 17 47 0
	mov	r0, r6
	.loc 17 46 0
	cmp	r4, #0
	beq	.L578
	.loc 17 47 0
	mov	r2, #0
	bl	lua_tointegerx
	mov	r4, r0
.LVL658:
	b	.L579
.LVL659:
.L578:
	.loc 17 49 0
	bl	lua_isstring
	cmp	r0, #0
	beq	.L580
	.loc 17 50 0
	mov	r2, r4
	mov	r1, #